
tasks.elf:     file format elf32-littlearm

SYMBOL TABLE:
00008000 l    d  .boot	00000000 .boot
000080e0 l    d  .text	00000000 .text
00009190 l    d  .data	00000000 .data
000091b8 l    d  .bss	00000000 .bss
00020268 l    d  .heapstack	00000000 .heapstack
00000000 l    d  .ARM.attributes	00000000 .ARM.attributes
00000000 l    d  .comment	00000000 .comment
00000000 l    d  .debug_line	00000000 .debug_line
00000000 l    d  .debug_info	00000000 .debug_info
00000000 l    d  .debug_abbrev	00000000 .debug_abbrev
00000000 l    d  .debug_aranges	00000000 .debug_aranges
00000000 l    d  .debug_str	00000000 .debug_str
00000000 l    d  .debug_frame	00000000 .debug_frame
00000000 l    d  .debug_loclists	00000000 .debug_loclists
00000000 l    df *ABS*	00000000 boot.o
00000002 l       *ABS*	00000000 RPICPU
00008020 l       .boot	00000000 _reset
00008024 l       .boot	00000000 _undef
00008028 l       .boot	00000000 _swi
0000802c l       .boot	00000000 _iabort
00008030 l       .boot	00000000 _dabort
00008034 l       .boot	00000000 _irq
00008038 l       .boot	00000000 _fiq
0000803c l       .boot	00000000 reset
00008068 l       .boot	00000000 continua
00008078 l       .boot	00000000 core0
000080b4 l       .boot	00000000 loop_bss
000080c4 l       .boot	00000000 done_bss
00000000 l    df *ABS*	00000000 switch.o
00000002 l       *ABS*	00000000 RPICPU
00008104 l       .text	00000000 disable
00000000 l    df *ABS*	00000000 sched.c
00000000 l    df *ABS*	00000000 main.c
00000000 l    df *ABS*	00000000 memset.c
00000000 l    df *ABS*	00000000 memcpy-stub.c
00008998 g     F .text	0000011c setup_io
000081a4 g     F .text	00000014 yield
0000811c g       .text	00000000 swi
0001f218 g     O .bss	00000004 tcb
000081e8 g     F .text	00000014 pcs_exit
00008f08 g     F .text	00000078 user3_main
000081b8 g     F .text	00000018 getpid
0001f268 g     O .bss	00001000 output
00008ab4 g     F .text	000000a4 read_io
0000907c g     F .text	00000114 memcpy
000080ec g       .text	00000000 enable_irq
000081fc g     F .text	00000018 sleep
00008b58 g     F .text	000000bc write_io
00029268 g       .heapstack	00000000 stack_irq
000087a8 g     F .text	000001f0 insert_tcb
0000835c g     F .text	000000d4 schedule
00020268 g       .heapstack	00000000 heap_addr
00009190 g       .data	00000000 data_begin
0002a268 g       .heapstack	00000000 stack_user1
000081d0 g     F .text	00000018 getticks
00009190 g     O .data	00000004 head
0001f214 g     O .bss	00000004 tid
00028268 g       .heapstack	00000000 stack_sys
00020268 g       .bss	00000000 bss_end
00008150 g       .text	00000000 irq
00008114 g       .text	00000000 panic
0001f1bc g     O .bss	00000058 idle_task
00008ec4 g     F .text	00000044 user2_main
00008430 g     F .text	000000e4 trata_swi
00008f80 g     F .text	000000fc memset
00008214 g     F .text	0000011c find_next_head
0001f21c g     O .bss	00000004 ll_size
0001f264 g     O .bss	00000004 last_output
0002b268 g       .heapstack	00000000 stack_user2
000080e0 g       .text	00000000 delay
00008e94 g     F .text	0000001c system_main
000091b8 g     O .bss	00000004 ticks
0001f220 g     O .bss	00000004 last_tid
00009194 g     O .data	00000010 out_pins
00008180 g       .text	00000000 task_switch
00008cdc g     F .text	000001b8 read_keyboard
0001f224 g     O .bss	00000040 read_matrix
000091bc g     O .bss	00016000 tcb_list
00008514 g     F .text	00000074 trata_irq
000091a4 g     O .data	00000010 in_pins
00008eb0 g     F .text	00000014 user1_main
00008000 g       .boot	00000000 start
000091b8 g       .bss	00000000 bss_begin
00008588 g     F .text	00000220 sched_init
0002c268 g       .heapstack	00000000 stack_user3
00008330 g     F .text	0000002c terminate_current_task
00008c14 g     F .text	000000c8 init_keyboard


Contents of section .boot:
 8000 18f09fe5 18f09fe5 18f09fe5 18f09fe5  ................
 8010 18f09fe5 0000a0e1 14f09fe5 14f09fe5  ................
 8020 3c800000 14810000 1c810000 14810000  <...............
 8030 14810000 50810000 14810000 00000fe1  ....P...........
 8040 1f0000e2 1a0050e3 0600001a 00000fe1  ......P.........
 8050 1f00c0e3 130080e3 00f06fe1 04e08fe2  ..........o.....
 8060 0ef32ee1 6e0060e1 b00f10ee 030010e3  ....n.`.........
 8070 0000000a 260000ea d200a0e3 00f029e1  ....&.........).
 8080 40d09fe5 d300a0e3 00f029e1 38d09fe5  @.........).8...
 8090 38009fe5 0010a0e3 fc03b0e8 fc03a1e8  8...............
 80a0 fc03b0e8 fc03a1e8 24009fe5 24109fe5  ........$...$...
 80b0 0020a0e3 010050e1 010000aa 0120c0e4  . ....P...... ..
 80c0 fbffffea 720300ea 68920200 68820200  ....r...h...h...
 80d0 00800000 b8910000 68020200           ........h...    
Contents of section .text:
 80e0 010050e2 fdffff1a 0ef0a0e1 0000b0e1  ..P.............
 80f0 0300000a 00000fe1 8000c0e3 00f029e1  ..............).
 8100 0ef0a0e1 00000fe1 800080e3 00f029e1  ..............).
 8110 0ef0a0e1 02f020e3 fdffffea c0000cf1  ...... .........
 8120 04002de5 74009fe5 000090e5 fe7fc0e9  ..-.t...........
 8130 3ce080e5 00104fe1 401080e5 04109de4  <.....O.@.......
 8140 001080e5 0100a0e1 b80000eb 0b0000ea  ................
 8150 04e04ee2 04002de5 40009fe5 000090e5  ..N...-.@.......
 8160 fe7fc0e9 3ce080e5 00104fe1 401080e5  ....<.....O.@...
 8170 04109de4 001080e5 e50000eb ffffffea  ................
 8180 18009fe5 000090e5 401090e5 01f069e1  ........@.....i.
 8190 fe7fd0e9 3ce090e5 000090e5 0ef0b0e1  ....<...........
 81a0 18f20100 04e02de5 0100a0e3 000000ef  ......-.........
 81b0 04f09de4 00f020e3 04e02de5 0200a0e3  ...... ...-.....
 81c0 000000ef 04f09de4 00f020e3 0300a0e1  .......... .....
 81d0 04e02de5 0300a0e3 000000ef 04f09de4  ..-.............
 81e0 00f020e3 0300a0e1 04e02de5 0400a0e3  .. .......-.....
 81f0 000000ef 04f09de4 00f020e3 04e02de5  .......... ...-.
 8200 0010a0e1 0500a0e3 000000ef 04f09de4  ................
 8210 00f020e3 04b02de5 00b08de2 0cd04de2  .. ...-.......M.
 8220 14320fe3 013040e3 003093e5 010073e3  .2...0@..0....s.
 8230 0600001a 903109e3 003040e3 003093e5  .....1...0@..0..
 8240 482093e5 903109e3 003040e3 002083e5  H ...1...0@.. ..
 8250 903109e3 003040e3 003093e5 483093e5  .1...0@..0..H0..
 8260 08300be5 180000ea 08301be5 5130d3e5  .0.......0..Q0..
 8270 7330efe6 020053e3 0900001a 08301be5  s0....S......0..
 8280 542093e5 b83109e3 003040e3 003093e5  T ...1...0@..0..
 8290 030052e1 0200008a 08301be5 0020a0e3  ..R......0... ..
 82a0 5120c3e5 08301be5 5130d3e5 7330efe6  Q ...0..Q0..s0..
 82b0 000053e3 0100001a 08301be5 170000ea  ..S......0......
 82c0 08301be5 483093e5 08300be5 903109e3  .0..H0...0...1..
 82d0 003040e3 003093e5 08201be5 030052e1  .0@..0... ....R.
 82e0 e0ffff1a 08301be5 5130d3e5 7330efe6  .....0..Q0..s0..
 82f0 000053e3 0100001a 08301be5 070000ea  ..S......0......
 8300 903109e3 003040e3 002093e5 bc310fe3  .1...0@.. ...1..
 8310 013040e3 482083e5 bc310fe3 013040e3  .0@.H ...1...0@.
 8320 0300a0e1 00d08be2 04b09de4 1eff2fe1  ............../.
 8330 04b02de5 00b08de2 903109e3 003040e3  ..-......1...0@.
 8340 003093e5 0320a0e3 5120c3e5 00f020e3  .0... ..Q .... .
 8350 00d08be2 04b09de4 1eff2fe1 00482de9  ........../..H-.
 8360 04b08de2 903109e3 003040e3 003093e5  .....1...0@..0..
 8370 5130d3e5 7330efe6 010053e3 0400001a  Q0..s0....S.....
 8380 903109e3 003040e3 003093e5 0020a0e3  .1...0@..0... ..
 8390 5120c3e5 9effffeb 0020a0e1 903109e3  Q ....... ...1..
 83a0 003040e3 002083e5 903109e3 003040e3  .0@.. ...1...0@.
 83b0 003093e5 442093e5 14320fe3 013040e3  .0..D ...2...0@.
 83c0 002083e5 903109e3 003040e3 003093e5  . ...1...0@..0..
 83d0 0320a0e1 18320fe3 013040e3 002083e5  . ...2...0@.. ..
 83e0 903109e3 003040e3 003093e5 0120a0e3  .1...0@..0... ..
 83f0 5120c3e5 903109e3 003040e3 003093e5  Q ...1...0@..0..
 8400 4c3093e5 000053e3 0600000a 903109e3  L0....S......1..
 8410 003040e3 002093e5 2d3ba0e3 003f43e3  .0@.. ..-;...?C.
 8420 4c2092e5 002083e5 00f020e3 0088bde8  L ... .... .....
 8430 00482de9 04b08de2 08d04de2 08000be5  .H-.......M.....
 8440 08301be5 013043e2 040053e3 03f19f97  .0...0C...S.....
 8450 2c0000ea 68840000 70840000 90840000  ,...h...p.......
 8460 b0840000 bc840000 bbffffeb 250000ea  ............%...
 8470 14320fe3 013040e3 002093e5 18320fe3  .2...0@.. ...2..
 8480 013040e3 003093e5 002083e5 1d0000ea  .0@..0... ......
 8490 18320fe3 013040e3 002093e5 b83109e3  .2...0@.. ...1..
 84a0 003040e3 003093e5 003082e5 150000ea  .0@..0...0......
 84b0 9effffeb a8ffffeb 120000ea 18320fe3  .............2..
 84c0 013040e3 003093e5 041093e5 b83109e3  .0@..0.......1..
 84d0 003040e3 002093e5 903109e3 003040e3  .0@.. ...1...0@.
 84e0 003093e5 022081e0 542083e5 903109e3  .0... ..T ...1..
 84f0 003040e3 003093e5 0220a0e3 5120c3e5  .0@..0... ..Q ..
 8500 95ffffeb 00f020e3 00f020e3 04d04be2  ...... ... ...K.
 8510 0088bde8 00482de9 04b08de2 b23ca0e3  .....H-......<..
 8520 003f43e3 003093e5 013003e2 000053e3  .?C..0...0....S.
 8530 1200000a 2d3ba0e3 003f43e3 0120a0e3  ....-;...?C.. ..
 8540 0c2083e5 b83109e3 003040e3 003093e5  . ...1...0@..0..
 8550 012083e2 b83109e3 003040e3 002083e5  . ...1...0@.. ..
 8560 903109e3 003040e3 003093e5 5030d3e5  .1...0@..0..P0..
 8570 7330efe6 000053e3 0000000a 76ffffeb  s0....S.....v...
 8580 00f020e3 0088bde8 00482de9 04b08de2  .. ......H-.....
 8590 90d04de2 4c304be2 4420a0e3 0010a0e3  ..M.L0K.D ......
 85a0 0300a0e1 750200eb 68320ae3 023040e3  ....u...h2...0@.
 85b0 18300be5 b03e08e3 003040e3 10300be5  .0...>...0@..0..
 85c0 1030a0e3 0c300be5 90304be2 4420a0e3  .0...0...0K.D ..
 85d0 0010a0e3 0300a0e1 680200eb 143108e3  ........h....1..
 85e0 003040e3 54300be5 1030a0e3 50300be5  .0@.T0...0..P0..
 85f0 bc3109e3 003040e3 0300a0e1 4c304be2  .1...0@.....L0K.
 8600 4420a0e3 0310a0e1 9b0200eb bc3109e3  D ...........1..
 8610 003040e3 0020a0e3 442083e5 bc3109e3  .0@.. ..D ...1..
 8620 003040e3 bc2109e3 002040e3 482083e5  .0@..!... @.H ..
 8630 bc3109e3 003040e3 0020a0e3 5120c3e5  .1...0@.. ..Q ..
 8640 bc3109e3 003040e3 0020a0e3 542083e5  .1...0@.. ..T ..
 8650 bc2109e3 002040e3 2d3ca0e3 313140e3  .!... @.-<..11@.
 8660 4c3082e5 bc3109e3 003040e3 0120a0e3  L0...1...0@.. ..
 8670 5020c3e5 20320fe3 013040e3 003093e5  P .. 2...0@..0..
 8680 012083e2 20320fe3 013040e3 002083e5  . .. 2...0@.. ..
 8690 1c320fe3 013040e3 003093e5 012083e2  .2...0@..0... ..
 86a0 1c320fe3 013040e3 002083e5 1c320fe3  .2...0@.. ...2..
 86b0 013040e3 003093e5 08300be5 bc310fe3  .0@..0...0...1..
 86c0 013040e3 0300a0e1 90304be2 4420a0e3  .0@......0K.D ..
 86d0 0310a0e1 680200eb bc310fe3 013040e3  ....h....1...0@.
 86e0 0020e0e3 442083e5 bc310fe3 013040e3  . ..D ...1...0@.
 86f0 0020a0e3 482083e5 bc310fe3 013040e3  . ..H ...1...0@.
 8700 0020a0e3 5120c3e5 bc210fe3 012040e3  . ..Q ...!... @.
 8710 353da0e3 033040e3 4c3082e5 bc310fe3  5=...0@.L0...1..
 8720 013040e3 0120a0e3 5020c3e5 bc310fe3  .0@.. ..P ...1..
 8730 013040e3 0020a0e3 542083e5 14320fe3  .0@.. ..T ...2..
 8740 013040e3 0020a0e3 002083e5 903109e3  .0@.. ... ...1..
 8750 003040e3 003093e5 0320a0e1 18320fe3  .0@..0... ...2..
 8760 013040e3 002083e5 2d3ba0e3 003f43e3  .0@.. ..-;...?C.
 8770 352da0e3 032040e3 002083e5 2d3ba0e3  5-... @.. ..-;..
 8780 003f43e3 a22200e3 082083e5 b23ca0e3  .?C.."... ...<..
 8790 003f43e3 0120a0e3 182083e5 00f020e3  .?C.. ... .... .
 87a0 04d04be2 0088bde8 10d04de2 00482de9  ..K.......M..H-.
 87b0 04b08de2 08d04de2 08000be5 08008be2  ......M.........
 87c0 0e0080e8 20320fe3 013040e3 003093e5  .... 2...0@..0..
 87d0 012083e2 20320fe3 013040e3 002083e5  . .. 2...0@.. ..
 87e0 1c320fe3 013040e3 003093e5 012083e2  .2...0@..0... ..
 87f0 1c320fe3 013040e3 002083e5 1c320fe3  .2...0@.. ...2..
 8800 013040e3 003093e5 010b53e3 5c0000aa  .0@..0....S.\...
 8810 1c320fe3 013040e3 002093e5 bc3109e3  .2...0@.. ...1..
 8820 003040e3 5810a0e3 910202e0 023083e0  .0@.X........0..
 8830 0300a0e1 08308be2 4420a0e3 0310a0e1  .....0..D ......
 8840 0d0200eb 1c320fe3 013040e3 001093e5  .....2...0@.....
 8850 20320fe3 013040e3 002093e5 bc3109e3   2...0@.. ...1..
 8860 003040e3 5800a0e3 900101e0 013083e0  .0@.X........0..
 8870 443083e2 002083e5 1c320fe3 013040e3  D0... ...2...0@.
 8880 001093e5 08301be5 482093e5 bc3109e3  .....0..H ...1..
 8890 003040e3 5800a0e3 900101e0 013083e0  .0@.X........0..
 88a0 483083e2 002083e5 1c320fe3 013040e3  H0... ...2...0@.
 88b0 002093e5 bc3109e3 003040e3 5810a0e3  . ...1...0@.X...
 88c0 910202e0 023083e0 513083e2 0020a0e3  .....0..Q0... ..
 88d0 0020c3e5 1c320fe3 013040e3 002093e5  . ...2...0@.. ..
 88e0 bc3109e3 003040e3 5810a0e3 910202e0  .1...0@.X.......
 88f0 023083e0 4c3083e2 4c209be5 002083e5  .0..L0..L ... ..
 8900 1c320fe3 013040e3 002093e5 bc3109e3  .2...0@.. ...1..
 8910 003040e3 5810a0e3 910202e0 023083e0  .0@.X........0..
 8920 503083e2 5020dbe5 0020c3e5 1c320fe3  P0..P ... ...2..
 8930 013040e3 002093e5 bc3109e3 003040e3  .0@.. ...1...0@.
 8940 5810a0e3 910202e0 023083e0 543083e2  X........0..T0..
 8950 0020a0e3 002083e5 1c320fe3 013040e3  . ... ...2...0@.
 8960 003093e5 5820a0e3 920302e0 bc3109e3  .0..X .......1..
 8970 003040e3 032082e0 08301be5 482083e5  .0@.. ...0..H ..
 8980 000000ea 00f020e3 04d04be2 0048bde8  ...... ...K..H..
 8990 10d08de2 1eff2fe1 04b02de5 00b08de2  ....../...-.....
 89a0 14d04de2 10000be5 0130a0e1 11304be5  ..M......0...0K.
 89b0 10201be5 673606e3 663646e3 9312c3e0  . ..g6..f6F.....
 89c0 4311a0e1 c23fa0e1 033041e0 08300be5  C....?...0A..0..
 89d0 10301be5 672606e3 662646e3 9213c2e0  .0..g&..f&F.....
 89e0 4211a0e1 c32fa0e1 022041e0 0a10a0e3  B..../... A.....
 89f0 910202e0 023043e0 0c300be5 11305be5  .....0C..0...0[.
 8a00 000053e3 1600000a 0030a0e3 203f43e3  ..S......0.. ?C.
 8a10 08201be5 023193e7 0c201be5 0310a0e3  . ...1... ......
 8a20 910202e0 0710a0e3 1122a0e1 0220e0e1  ........."... ..
 8a30 032002e0 0c301be5 0310a0e3 910303e0  . ...0..........
 8a40 0110a0e3 1133a0e1 0310a0e1 0030a0e3  .....3.......0..
 8a50 203f43e3 011082e1 08201be5 021183e7   ?C...... ......
 8a60 0f0000ea 0030a0e3 203f43e3 08201be5  .....0.. ?C.. ..
 8a70 022193e7 0c301be5 0310a0e3 910303e0  .!...0..........
 8a80 0710a0e3 1133a0e1 0330e0e1 0310a0e1  .....3...0......
 8a90 0030a0e3 203f43e3 021001e0 08201be5  .0.. ?C...... ..
 8aa0 021183e7 00f020e3 00d08be2 04b09de4  ...... .........
 8ab0 1eff2fe1 04b02de5 00b08de2 1cd04de2  ../...-.......M.
 8ac0 18000be5 18301be5 1f2083e2 000053e3  .....0... ....S.
 8ad0 0230a0b1 0330a0a1 c332a0e1 08300be5  .0...0...2...0..
 8ae0 18301be5 002073e2 1f3003e2 1f2002e2  .0... s..0... ..
 8af0 00306252 0c300be5 0020a0e3 202f43e3  .0bR.0... .. /C.
 8b00 08301be5 0c3083e2 0331a0e1 033082e0  .0...0...1...0..
 8b10 043093e5 0110a0e3 0c201be5 1122a0e1  .0....... ..."..
 8b20 023003e0 10300be5 0120a0e3 0c301be5  .0...0... ...0..
 8b30 1233a0e1 10201be5 030052e1 0130a003  .3... ....R..0..
 8b40 0030a013 7330efe6 0300a0e1 00d08be2  .0..s0..........
 8b50 04b09de4 1eff2fe1 04b02de5 00b08de2  ....../...-.....
 8b60 14d04de2 10000be5 0130a0e1 11304be5  ..M......0...0K.
 8b70 10301be5 1f2083e2 000053e3 0230a0b1  .0... ....S..0..
 8b80 0330a0a1 c332a0e1 08300be5 10301be5  .0...2...0...0..
 8b90 002073e2 1f3003e2 1f2002e2 00306252  . s..0... ...0bR
 8ba0 0c300be5 11305be5 000053e3 0b00000a  .0...0[...S.....
 8bb0 0120a0e3 0c301be5 1233a0e1 0020a0e3  . ...0...3... ..
 8bc0 202f43e3 0310a0e1 08301be5 063083e2   /C......0...0..
 8bd0 0331a0e1 033082e0 041083e5 080000ea  .1...0..........
 8be0 0120a0e3 0c301be5 1223a0e1 0030a0e3  . ...0...#...0..
 8bf0 203f43e3 0210a0e1 08201be5 0a2082e2   ?C...... ... ..
 8c00 021183e7 00f020e3 00d08be2 04b09de4  ...... .........
 8c10 1eff2fe1 00482de9 04b08de2 08d04de2  ../..H-.......M.
 8c20 0110a0e3 1300a0e3 5affffeb 0110a0e3  ........Z.......
 8c30 0d00a0e3 57ffffeb 0110a0e3 0600a0e3  ....W...........
 8c40 54ffffeb 0110a0e3 0500a0e3 51ffffeb  T...........Q...
 8c50 0010a0e3 1000a0e3 4effffeb 0010a0e3  ........N.......
 8c60 1400a0e3 4bffffeb 0010a0e3 0c00a0e3  ....K...........
 8c70 48ffffeb 0010a0e3 1500a0e3 45ffffeb  H...........E...
 8c80 0030a0e3 08300be5 090000ea 943109e3  .0...0.......1..
 8c90 003040e3 08201be5 023193e7 0010a0e3  .0@.. ...1......
 8ca0 0300a0e1 abffffeb 08301be5 013083e2  .........0...0..
 8cb0 08300be5 08301be5 030053e3 f2ffffda  .0...0....S.....
 8cc0 64320fe3 013040e3 0020a0e3 002083e5  d2...0@.. ... ..
 8cd0 00f020e3 04d04be2 0088bde8 00482de9  .. ...K......H-.
 8ce0 04b08de2 08d04de2 0030a0e3 08300be5  ......M..0...0..
 8cf0 630000ea 943109e3 003040e3 08201be5  c....1...0@.. ..
 8d00 023193e7 0110a0e3 0300a0e1 91ffffeb  .1..............
 8d10 0030a0e3 0c300be5 4c0000ea a43109e3  .0...0..L....1..
 8d20 003040e3 0c201be5 023193e7 0300a0e1  .0@.. ...1......
 8d30 5fffffeb 0030a0e1 000053e3 3800000a  _....0....S.8...
 8d40 24320fe3 013040e3 0c201be5 0211a0e1  $2...0@.. ......
 8d50 08201be5 022081e0 023193e7 630053e3  . ... ...1..c.S.
 8d60 0f0000ca 24320fe3 013040e3 0c201be5  ....$2...0@.. ..
 8d70 0211a0e1 08201be5 022081e0 023193e7  ..... ... ...1..
 8d80 011083e2 24320fe3 013040e3 0c201be5  ....$2...0@.. ..
 8d90 0201a0e1 08201be5 022080e0 021183e7  ..... ... ......
 8da0 270000ea 0c301be5 0311a0e1 64320fe3  '....0......d2..
 8db0 013040e3 002093e5 010082e2 64320fe3  .0@.. ......d2..
 8dc0 013040e3 000083e5 08301be5 031081e0  .0@......0......
 8dd0 68320fe3 013040e3 021183e7 24320fe3  h2...0@.....$2..
 8de0 013040e3 0c201be5 0211a0e1 08201be5  .0@.. ....... ..
 8df0 022081e0 0010a0e3 021183e7 64320fe3  . ..........d2..
 8e00 013040e3 003093e5 010b53e3 0c0000ba  .0@..0....S.....
 8e10 64320fe3 013040e3 0020a0e3 002083e5  d2...0@.. ... ..
 8e20 070000ea 24320fe3 013040e3 0c201be5  ....$2...0@.. ..
 8e30 0211a0e1 08201be5 022081e0 0010a0e3  ..... ... ......
 8e40 021183e7 0c301be5 013083e2 0c300be5  .....0...0...0..
 8e50 0c301be5 030053e3 afffffda 943109e3  .0....S......1..
 8e60 003040e3 08201be5 023193e7 0010a0e3  .0@.. ...1......
 8e70 0300a0e1 37ffffeb 08301be5 013083e2  ....7....0...0..
 8e80 08300be5 08301be5 030053e3 98ffffda  .0...0....S.....
 8e90 94ffffea 00482de9 04b08de2 5cffffeb  .....H-.....\...
 8ea0 b8fdffeb b5fcffea 00f020e3 0088bde8  .......... .....
 8eb0 00482de9 04b08de2 87ffffeb 00f020e3  .H-........... .
 8ec0 0088bde8 00482de9 04b08de2 08d04de2  .....H-.......M.
 8ed0 0030a0e3 08300be5 030000ea 00f020e3  .0...0........ .
 8ee0 08301be5 013083e2 08300be5 08301be5  .0...0...0...0..
 8ef0 950053e3 f8ffffda 00f020e3 0400a0e3  ..S....... .....
 8f00 bdfcffeb f1ffffea 00482de9 04b08de2  .........H-.....
 8f10 08d04de2 0030a0e3 08300be5 100000ea  ..M..0...0......
 8f20 0030a0e3 0c300be5 030000ea 00f020e3  .0...0........ .
 8f30 0c301be5 013083e2 0c300be5 0c301be5  .0...0...0...0..
 8f40 db2500e3 020053e1 f7ffffda 00f020e3  .%....S....... .
 8f50 0400a0e3 a8fcffeb 08301be5 013083e2  .........0...0..
 8f60 08300be5 08301be5 020053e3 ebffffda  .0...0....S.....
 8f70 9cfcffeb 00f020e3 04d04be2 0088bde8  ...... ...K.....
 8f80 030010e3 30402de9 3600000a 000052e3  ....0@-.6.....R.
 8f90 013042e2 2f00000a 00e0a0e1 ff2001e2  .0B./........ ..
 8fa0 010000ea 013053e2 2a00003a 0120cee4  .....0S.*..:. ..
 8fb0 03001ee3 faffff1a 030053e3 1e00009a  ..........S.....
 8fc0 ffc001e2 0cc48ce0 0f0053e3 0cc88ce0  ..........S.....
 8fd0 2700009a 102043e2 0f40c2e3 20508ee2  '.... C..@.. P..
 8fe0 045085e0 2242a0e1 10208ee2 10c002e5  .P.."B... ......
 8ff0 0cc002e5 08c002e5 04c002e5 102082e2  ............. ..
 9000 050052e1 f8ffff1a 012084e2 0c0013e3  ..R...... ......
 9010 02228ee0 0f3003e2 1000000a 04e043e2  ."...0........C.
 9020 03e0cee3 04e08ee2 0ee082e0 04c082e4  ................
 9030 02005ee1 fcffff1a 033003e2 000053e3  ..^......0....S.
 9040 ff100112 03308e10 0200000a 0110cee4  .....0..........
 9050 03005ee1 fcffff1a 3040bde8 1eff2fe1  ..^.....0@..../.
 9060 02e0a0e1 f4ffffea 00e0a0e1 0230a0e1  .............0..
 9070 d0ffffea 0e20a0e1 e7ffffea 0f0052e3  ..... ........R.
 9080 0c00009a 013080e1 030013e3 0030a011  .....0.......0..
 9090 01204212 0c00000a 012082e2 013043e2  . B...... ...0C.
 90a0 022081e0 01c0d1e4 020051e1 01c0e3e5  . ........Q.....
 90b0 fbffff1a 1eff2fe1 000052e3 0030a0e1  ....../...R..0..
 90c0 012042e2 f3ffff1a 1eff2fe1 00c0a0e1  . B......./.....
 90d0 f0412de9 107042e2 0f70c7e3 107087e2  .A-..pB..p...p..
 90e0 10e081e2 073080e0 10801ee5 10808ce4  .....0..........
 90f0 0c601ee5 08501ee5 04401ee5 03005ce1  .`...P...@....\.
 9100 0c600ce5 08500ce5 04400ce5 10e08ee2  .`...P...@......
 9110 f4ffff1a 0c0012e3 0fc002e2 0c20a001  ............. ..
 9120 071081e0 0d00000a 0140a0e1 04c04ce2  .........@....L.
 9130 0360cce3 2ce1a0e1 066083e0 04c043e2  .`..,....`....C.
 9140 045094e4 0450ace5 06005ce1 fbffff1a  .P...P....\.....
 9150 01c08ee2 032002e2 0c3183e0 0c1181e0  ..... ...1......
 9160 000052e3 012042e2 01208212 01304312  ..R.. B.. ...0C.
 9170 02208110 0300000a 01c0d1e4 020051e1  . ............Q.
 9180 01c0e3e5 fbffff1a f041bde8 1eff2fe1  .........A..../.
Contents of section .data:
 9190 bc910000 13000000 0d000000 06000000  ................
 91a0 05000000 10000000 14000000 0c000000  ................
 91b0 15000000                             ....            
Contents of section .ARM.attributes:
 0000 412f0000 00616561 62690001 25000000  A/...aeabi..%...
 0010 0541524d 20763700 060a0741 08010902  .ARM v7....A....
 0020 12041401 15011703 18011a01 22014402  ............".D.
Contents of section .comment:
 0000 4743433a 20283135 3a31332e 322e7265  GCC: (15:13.2.re
 0010 6c312d32 29203133 2e322e31 20323032  l1-2) 13.2.1 202
 0020 33313030 3900                        31009.          
Contents of section .debug_line:
 0000 62000000 02001a00 00000201 fb0e0a00  b...............
 0010 01010101 00000001 00626f6f 742e7300  .........boot.s.
 0020 00000000 00050200 80000017 2c2c2c2c  ............,,,,
 0030 2c2c2c03 13ef2c2c 2c302c2c 2c2c2c2c  ,,,...,,,0,,,,,,
 0040 312c2c2c 332c2c2d 2c2c322c 2c2c2c2c  1,,,3,,-,,2,,,,,
 0050 302c2c2d 2c2c2c31 035e2b2f 32030a2b  0,,-,,,1.^+/2..+
 0060 2c020200 01014f00 00000200 1c000000  ,.....O.........
 0070 0201fb0e 0a000101 01010000 00010073  ...............s
 0080 77697463 682e7300 00000000 000502e0  witch.s.........
 0090 80000003 25012c2c 332c2c2c 2c2c2d2c  ....%.,,3,,,,,-,
 00a0 2c2c322c 322c081e 2c2c322c 081e2c32  ,,2,2,..,,2,..,2
 00b0 d4036b2b 02020001 017a0200 00030068  ..k+.....z.....h
 00c0 00000002 01fb0e0d 00010101 01000000  ................
 00d0 01000001 2f757372 2f6c6962 2f676363  ..../usr/lib/gcc
 00e0 2f61726d 2d6e6f6e 652d6561 62692f31  /arm-none-eabi/1
 00f0 332e322e 312f696e 636c7564 65000073  3.2.1/include..s
 0100 63686564 2e630000 00007374 64696e74  ched.c....stdint
 0110 2e680001 00007363 6865642e 68000000  .h....sched.h...
 0120 0062636d 2e680000 00000005 29000502  .bcm.h......)...
 0130 a4810000 03d20001 05031305 01860529  ...............)
 0140 33050313 05018605 304f0503 13050186  3.......0O......
 0150 052c4f05 03130501 86053c34 05041305  .,O.......<4....
 0160 01a30524 30050b67 05066605 0d4b0507  ...$0..g..f..K..
 0170 82051e69 05166605 094c0507 2f050566  ...i..f..L../..f
 0180 052c0002 04014a05 28000204 014a051f  .,....J.(....J..
 0190 00020401 6605104b 050a6805 0866050e  ....f..K..h..f..
 01a0 4b05074c 050c0379 66050803 0aba0506  K..L...yf.......
 01b0 66050c4b 05124d05 0abc0501 4b052384  f..K..M.....K.#.
 01c0 05074b05 0f660501 4b051588 050b4c05  ..K..f..K.....L.
 01d0 069e0509 4b051166 050a4e05 08000204  ....K..f..N.....
 01e0 014a050d 68050782 050e6705 09660507  .J..h.....g..f..
 01f0 2e67050f 66050b4c 05068205 1b4b0505  .g..f..L.....K..
 0200 66051b4a 05152e05 0130051d 51050383  f..J.....0..Q...
 0210 05050844 2f051203 092e0508 66051266  ...D/.......f..f
 0220 05052f05 0803092e 05126605 0583342f  ../.......f...4/
 0230 2f052433 052a6605 1f2e0509 66051f66  /.$3.*f.....f..f
 0240 05172e05 092f0511 6605054b 2f050130  ...../..f..K/..0
 0250 05166c05 074e0506 8205054b 05144a05  ..l..N.....K..J.
 0260 134b050b 82050d68 05089e05 074b0501  .K.....h.....K..
 0270 3305174f 05096a05 07030e9e 05090372  3..O..j........r
 0280 4a050703 102e0509 03704a03 3c660543  J........pJ.<f.C
 0290 9e05094a 051369d7 05148305 159f051b  ...J..i.........
 02a0 83839f05 0b88050a d70507d8 051185d7  ................
 02b0 05128405 13830517 8505199f 83050784  ................
 02c0 050e8305 09660507 2e05036b 05134a05  .....f.....k..J.
 02d0 03670516 4a05034f 05194a05 014b055b  .g..J..O..J..K.[
 02e0 6b050bd7 050ad705 0fd80506 6605144d  k...........f..M
 02f0 05196605 14083d05 19660514 083d0520  ..f...=..f...=. 
 0300 66051a4a 0514d705 1b660514 f3051f66  f..J.....f.....f
 0310 0514f305 21660514 f3052166 0519f305  ....!f....!f....
 0320 1066050e 9e05034c 05050375 2e050103  .f.....L...u....
 0330 0c2e0208 0001011b 02000003 00740000  .............t..
 0340 000201fb 0e0d0001 01010100 00000100  ................
 0350 00012f75 73722f6c 69622f67 63632f61  ../usr/lib/gcc/a
 0360 726d2d6e 6f6e652d 65616269 2f31332e  rm-none-eabi/13.
 0370 322e312f 696e636c 75646500 006d6169  2.1/include..mai
 0380 6e2e6300 00000074 65636c61 646f2e63  n.c....teclado.c
 0390 00000000 62636d2e 68000000 00737464  ....bcm.h....std
 03a0 696e742e 68000100 00736368 65642e68  int.h....sched.h
 03b0 00000000 00040205 23000502 98890000  ........#.......
 03c0 03190105 09bbf305 08085905 2467054c  ..........Y.$g.L
 03d0 82054666 053f4a05 3c2e0567 2e056166  ..Ff.?J.<..g..af
 03e0 05096605 594a0521 2e05014e 05232c05  ..f.YJ.!...N.#,.
 03f0 4b820545 66053e4a 05094a05 3b4a0521  K..Ef.>J..J.;J.!
 0400 2e05014c 05188405 0983d705 16bb0535  ...L...........5
 0410 d6052d66 05092e05 1f2f0516 6605019f  ..-f...../..f...
 0420 05278405 09bbd705 08bb0527 67050966  .'.........'g..f
 0430 05274a05 202e0501 a205272c 05096605  .'J. .....',..f.
 0440 274a0520 2e050168 05168405 05676767  'J. ...h.....ggg
 0450 67686767 67050e68 05054a05 092f0520  ghggg..h..J../. 
 0460 00020403 d5051700 02040166 05116905  ...........f..i.
 0470 01830516 68051268 05094a05 0d2f0515  ....h..h..J../..
 0480 d8050d4a 05152f05 14000204 01d60527  ...J../........'
 0490 4b0518d6 05274b05 2ad60533 0822052b  K....'K.*..3.".+
 04a0 4a053ad6 052f4a05 2b670529 f3051c66  J.:../J.+g.)...f
 04b0 05294b05 27a20002 04020374 f2051e00  .)K.'......t....
 04c0 02040166 050d0310 66052400 02040203  ...f....f.$.....
 04d0 6dd6051b 00020401 66050966 04010518  m.......f..f....
 04e0 03412e05 034b2f2f 05012f05 174f0503  .A...K//../..O..
 04f0 4b05012f 05174f05 0c690505 4a05072f  K../..O..i..J../
 0500 051b0002 04032d05 13000204 01660505  ......-......f..
 0510 692f050c 46051736 050a6805 034a050c  i/..F..6..h..J..
 0520 3005054a 05072f05 1c000204 032d0513  0..J../......-..
 0530 00020401 66050585 2f051700 02040203  ....f.../.......
 0540 7a4a0511 00020401 66050303 09660501  zJ......f....f..
 0550 2f020600 0101b501 00000300 bc000000  /...............
 0560 0201fb0e 0d000101 01010000 00010000  ................
 0570 012e2e2f 2e2e2f2e 2e2f6e65 776c6962  .../../../newlib
 0580 2f6c6962 632f7374 72696e67 002f7573  /libc/string./us
 0590 722f6c69 622f6763 632f6172 6d2d6e6f  r/lib/gcc/arm-no
 05a0 6e652d65 6162692f 31332e32 2e312f69  ne-eabi/13.2.1/i
 05b0 6e636c75 6465002f 6275696c 642f6e65  nclude./build/ne
 05c0 776c6962 2d333856 304a432f 6e65776c  wlib-38V0JC/newl
 05d0 69622d34 2e342e30 2e323032 33313233  ib-4.4.0.2023123
 05e0 312f6e65 776c6962 2f6c6962 632f696e  1/newlib/libc/in
 05f0 636c7564 6500006d 656d7365 742e6300  clude..memset.c.
 0600 01000073 74646465 662e6800 02000073  ...stddef.h....s
 0610 7472696e 672e6800 03000000 05010005  tring.h.........
 0620 02808f00 00032801 05031315 13131315  ......(.........
 0630 050a0105 01060376 2e050a03 0a2e0507  .......v........
 0640 0630050a 0601050c 2e050a2e 05090375  .0.............u
 0650 2e051003 0c2e2e05 0a2d2e05 07062e05  .........-......
 0660 0913050e 0601050a 062b0503 52050606  .........+..R...
 0670 01050706 4d161305 1006036d 0103184a  ....M......m...J
 0680 05070646 05160002 04010105 1016062e  ...F............
 0690 050b06bc 051b0601 050b062f 051b0601  .........../....
 06a0 050b062f 051b0601 050b062f 051b0601  .../......./....
 06b0 050b062f 0510037a 01062e4a 03092e06  .../...z...J....
 06c0 66062e2e 050b0668 051b0601 050b062f  f......h......./
 06d0 05100f06 4a050a06 030b2e06 01051003  ....J...........
 06e0 5a2e2e05 0a03262e 0505062f 050a0601  Z.....&..../....
 06f0 062d0601 05014e05 0903774a 2e03532e  .-....N...wJ..S.
 0700 050a0309 2e051403 0b4a0204 000101e9  .........J......
 0710 01000003 00000100 000201fb 0e0d0001  ................
 0720 01010100 00000100 00012e2e 2f2e2e2f  ............/../
 0730 2e2e2f6e 65776c69 622f6c69 62632f6d  ../newlib/libc/m
 0740 61636869 6e652f61 726d002e 2e2f2e2e  achine/arm.../..
 0750 2f2e2e2f 6e65776c 69622f6c 6962632f  /../newlib/libc/
 0760 6d616368 696e652f 61726d2f 2e2e2f2e  machine/arm/../.
 0770 2e2f7374 72696e67 002f7573 722f6c69  ./string./usr/li
 0780 622f6763 632f6172 6d2d6e6f 6e652d65  b/gcc/arm-none-e
 0790 6162692f 31332e32 2e312f69 6e636c75  abi/13.2.1/inclu
 07a0 6465002f 6275696c 642f6e65 776c6962  de./build/newlib
 07b0 2d333856 304a432f 6e65776c 69622d34  -38V0JC/newlib-4
 07c0 2e342e30 2e323032 33313233 312f6e65  .4.0.20231231/ne
 07d0 776c6962 2f6c6962 632f696e 636c7564  wlib/libc/includ
 07e0 6500006d 656d6370 792d7374 75622e63  e..memcpy-stub.c
 07f0 00010000 6d656d63 70792e63 00020000  ....memcpy.c....
 0800 73746464 65662e68 00030000 73747269  stddef.h....stri
 0810 6e672e68 00040000 00040205 01000502  ng.h............
 0820 7c900000 03330105 03030e01 13131316  |....3..........
 0830 05060601 051c0002 04014a05 18000204  ..........J.....
 0840 012e0509 03792e05 0e03222e 05180002  .....y....".....
 0850 04010365 2e000204 012e0505 06031c66  ...e...........f
 0860 050c0601 050a2d05 0c2f050a 062d0601  ......-../...-..
 0870 4a050903 5e2e050a 0603222e 050e0601  J...^.....".....
 0880 050a2e2e 05130367 2e050103 692e050b  .......g....i...
 0890 06031dba 051a0601 051c4a05 0b066713  ..........J...g.
 08a0 13051306 0d051a30 050b066a 0513037a  .......0...j...z
 08b0 01062e03 0a2e4a06 4a050bd8 051a0601  ......J.J.......
 08c0 2e050b06 2f05130f 050b0689 2f050a06  ..../......./...
 08d0 31050e06 2e2e2e2e 050a2e05 05062f05  1............./.
 08e0 0c060105 0a2d050c 2f050a06 2d060105  .....-../...-...
 08f0 03063105 01061402 04000101           ..1.........    
Contents of section .debug_info:
 0000 22000000 02000000 00000401 00000000  "...............
 0010 00800000 dc800000 00000000 07000000  ................
 0020 39000000 01802200 00000200 14000000  9.....".........
 0030 04016600 0000e080 0000a481 00004500  ..f...........E.
 0040 00000700 00003900 00000180 05050000  ......9.........
 0050 05000104 28000000 15b70100 001d2b03  ....(.........+.
 0060 00000700 0000a481 0000f407 0000b900  ................
 0070 00000201 06710200 00020205 7d020000  .....q......}...
 0080 020405c0 00000002 0805bb00 00000302  ................
 0090 03000002 2e184e00 00000201 086f0200  ......N......o..
 00a0 00020207 7f010000 03a60200 00023419  ..............4.
 00b0 6d000000 045c0000 00020407 7e000000  m....\......~...
 00c0 02080779 00000016 0405696e 7400047b  ...y......int..{
 00d0 00000002 04078300 000003c8 02000003  ................
 00e0 06169f00 0000048e 0000000c c2020000  ................
 00f0 441eb800 000001af 02000001 1f0ca202  D...............
 0100 00000000 034e0000 00030717 c9000000  .....N..........
 0110 04b80000 000cce02 00005831 30010000  ..........X10...
 0120 06746362 00013209 8e000000 00067469  .tcb..2.......ti
 0130 64000133 077b0000 004401aa 00000001  d..3.{...D......
 0140 341be502 00004801 f9000000 01350c5c  4.....H......5.\
 0150 0000004c 019e0000 00013608 ea020000  ...L......6.....
 0160 5001ea00 00000137 10d90200 005101af  P......7.....Q..
 0170 00000001 380c5c00 00005400 04c90000  ....8.\...T.....
 0180 000d7469 64000915 82000000 0d746362  ..tid........tcb
 0190 000a184b 01000008 9a000000 0e246ccd  ...K.........$l.
 01a0 01000001 5f010000 046d1568 00000000  ...._....m.h....
 01b0 013c0100 00046e15 68000000 04011c01  .<....n.h.......
 01c0 0000046f 15680000 00080661 636b0004  ...o.h.....ack..
 01d0 70156800 00000c01 6d010000 04711568  p.h.....m....q.h
 01e0 00000010 014f0200 00047215 68000000  .....O....r.h...
 01f0 14015d01 00000473 15680000 00180670  ..]....s.h.....p
 0200 72650004 74156800 00001c01 87020000  re..t.h.........
 0210 04751568 00000020 00030301 00000476  .u.h... .......v
 0220 03500100 000e287c 63020000 018f0200  .P....(|c.......
 0230 00047d15 68000000 0001c900 0000047e  ..}.h..........~
 0240 15680000 000401d3 00000004 7f156800  .h............h.
 0250 00000806 66697100 04801568 0000000c  ....fiq....h....
 0260 01db0200 00048115 68000000 1001e402  ........h.......
 0270 00000482 15680000 00140109 02000004  .....h..........
 0280 83156800 00001801 3b020000 04841568  ..h.....;......h
 0290 0000001c 01450200 00048515 68000000  .....E......h...
 02a0 2001b402 00000486 15680000 00240003   ........h...$..
 02b0 f8020000 048703d9 01000002 08041602  ................
 02c0 00000201 08780200 000f2202 00000c42  .....x...."....B
 02d0 0000000f 2c010000 0f420000 00059501  ....,....B......
 02e0 00001813 68000000 0503b891 0000105c  ....h..........\
 02f0 000000b2 02000017 87000000 10001807  ................
 0300 014e0000 0001250e d9020000 07570000  .N....%......W..
 0310 0000072e 02000001 070f0100 0002074d  ...............M
 0320 01000003 0003dd00 0000012a 03b20200  ...........*....
 0330 00083001 00000201 02690200 0010c400  ..0......i......
 0340 00000203 00001987 000000ff 030004f1  ................
 0350 02000005 f0000000 3f130203 00000503  ........?.......
 0360 bc910000 05140300 00401429 03000005  .........@.)....
 0370 03909100 0008c400 00000575 01000041  ...........u...A
 0380 13c40000 000503bc f1010011 35010000  ............5...
 0390 460e0503 14f20100 11400100 00471105  F........@...G..
 03a0 0318f201 00052401 00004c0e 82000000  ......$...L.....
 03b0 05031cf2 0100059b 0100004d 0e820000  ...........M....
 03c0 00050320 f201001a 20030000 0114057b  ... .... ......{
 03d0 00000012 42010000 7801a887 0000f001  ....B...x.......
 03e0 0000019c d4030000 09140300 00242903  .............$).
 03f0 00000291 641b7463 62000178 01308e00  ....d.tcb..x.0..
 0400 00000291 7409f900 00003e5c 00000002  ....t.....>\....
 0410 9138099e 0000004e ea020000 02913c00  .8.....N......<.
 0420 12ed0200 00060188 85000020 02000001  ........... ....
 0430 9c190400 000a9900 00000a01 098e0000  ................
 0440 000391b0 7f0aae01 00004601 098e0000  ..........F.....
 0450 000391ec 7e0a9000 00005801 077b0000  ....~.....X..{..
 0460 00029174 0013a401 0000f314 85000074  ...t...........t
 0470 00000001 9c1c3201 000001bd 06308400  ......2......0..
 0480 00e40000 00019c4e 0400001d 6f700001  .......N....op..
 0490 bd198700 00000291 74001364 010000a6  ........t..d....
 04a0 5c830000 d4000000 019c0b62 0000009e  \..........b....
 04b0 06308300 002c0000 00019c1e 0a030000  .0...,..........
 04c0 01841429 03000014 8200001c 01000001  ...)............
 04d0 9c970400 001f6900 01891629 03000002  ......i....)....
 04e0 91740020 63020000 017c1dfc 81000018  .t. c....|......
 04f0 00000001 9cbc0400 00215a02 0000017c  .........!Z....|
 0500 2c870000 00015000 0b9d0200 00711de8  ,.....P......q..
 0510 81000014 00000001 9c149201 00006721  ..............g!
 0520 87000000 d0810000 18000000 019c1419  ................
 0530 0300005d 1c7b0000 00b88100 00180000  ...].{..........
 0540 00019c0b d5020000 531da481 00001400  ........S.......
 0550 0000019c 00cb0300 00050001 047a0200  .............z..
 0560 0010b701 00001dd3 03000007 00000098  ................
 0570 890000e8 05000037 03000002 01067102  .......7......q.
 0580 00000202 057d0200 00020405 c0000000  .....}..........
 0590 020805bb 00000002 01086f02 00000202  ..........o.....
 05a0 077f0100 000ba602 00000434 19610000  ...........4.a..
 05b0 000a5000 00000204 077e0000 00020807  ..P......~......
 05c0 79000000 11040569 6e740002 04078300  y......int......
 05d0 000012a0 03320916 01000001 8f030000  .....2..........
 05e0 33260100 0000015e 03000035 3b010000  3&.....^...5;...
 05f0 1c013303 0000373b 01000028 01510300  ..3...7;...(.Q..
 0600 00393b01 00003401 ae030000 3b3b0100  .9;...4.....;;..
 0610 00400189 0300003d 3b010000 4c01e803  .@.....=;...L...
 0620 00003f3b 01000058 01160400 00413b01  ..?;...X.....A;.
 0630 00006401 4b030000 433b0100 00700157  ..d.K...C;...p.W
 0640 03000045 3b010000 7c01a703 0000473b  ...E;...|.....G;
 0650 01000088 011c0400 00495c00 00009401  .........I\.....
 0660 f6030000 4a3b0100 00980005 5c000000  ....J;......\...
 0670 26010000 06760000 0005000a 16010000  &....v..........
 0680 055c0000 003b0100 00067600 00000100  .\...;....v.....
 0690 0a2b0100 000bff03 0000034b 037d0000  .+.........K.}..
 06a0 00056f00 00006201 00000676 00000003  ..o...b....v....
 06b0 06760000 00030007 39030000 13054c01  .v......9.....L.
 06c0 00000503 24f20100 070a0400 00131e6f  ....$..........o
 06d0 00000005 0364f201 00056f00 00009501  .....d....o.....
 06e0 00001376 000000ff 0300070f 04000015  ...v............
 06f0 05840100 00050368 f2010005 6f000000  .......h....o...
 0700 b6010000 06760000 00030007 96030000  .....v..........
 0710 1705a601 00000503 94910000 07cb0300  ................
 0720 001805a6 01000005 03a49100 000c9d02  ................
 0730 00000f14 63020000 051006f0 01000015  ....c...........
 0740 76000000 000ced02 0000160d 22040000  v..........."...
 0750 24088f00 00780000 00019c2f 02000004  $....x...../....
 0760 69000125 076f0000 00029174 08208f00  i..%.o.....t. ..
 0770 00380000 00046a00 0127066f 00000002  .8....j..'.o....
 0780 91700000 0d6d0300 0019c48e 00004400  .p...m........D.
 0790 0000019c 51020000 04690001 1a076f00  ....Q....i....o.
 07a0 00000291 74000e20 03000012 b08e0000  ....t.. ........
 07b0 14000000 019c0e2d 04000009 948e0000  .......-........
 07c0 1c000000 019c0fb4 03000046 dc8c0000  ...........F....
 07d0 b8010000 019cb402 000008e8 8c0000a8  ................
 07e0 01000004 63000248 126f0000 00029174  ....c..H.o.....t
 07f0 08108d00 004c0100 00047200 024b156f  .....L....r..K.o
 0800 00000002 91700000 000fda03 00003514  .....p........5.
 0810 8c0000c8 00000001 9ce00200 0008808c  ................
 0820 00004000 00000469 0002400e 6f000000  ..@....i..@.o...
 0830 02917400 00166403 0000022b 06588b00  ..t...d....+.X..
 0840 00bc0000 00019c2d 03000009 84030000  .......-........
 0850 2b136f00 00000291 6c09ee03 00002b1e  +.o.....l.....+.
 0860 2d030000 02916b03 45030000 2c6f0000  -.....k.E...,o..
 0870 00029174 03780300 002d6f00 00000291  ...t.x...-o.....
 0880 70000201 02690200 00179f03 00000224  p....i.........$
 0890 062d0300 00b48a00 00a40000 00019c84  .-..............
 08a0 03000009 84030000 24126f00 00000291  ........$.o.....
 08b0 64034503 0000256f 00000002 91740378  d.E...%o.....t.x
 08c0 03000026 6f000000 02917003 7f030000  ...&o.....p.....
 08d0 276f0000 0002916c 0018c203 0000021a  'o.....l........
 08e0 06988900 001c0100 00019c09 84030000  ................
 08f0 1a136f00 00000291 6c196f75 7400021a  ..o.....l.out...
 0900 1e2d0300 0002916b 03450300 001b6f00  .-.....k.E....o.
 0910 00000291 74037803 00001c6f 00000002  ....t.x....o....
 0920 91700000 31010000 05000104 30040000  .p..1.......0...
 0930 06cb0400 001d9804 00004d04 0000808f  ..........M.....
 0940 0000fc00 00005605 00000108 07790000  ......V......y..
 0950 00010407 83000000 07040569 6e740008  ...........int..
 0960 39040000 02d6172d 00000001 0805bb00  9......-........
 0970 00000108 04160200 00010106 71020000  ............q...
 0980 0101086f 02000001 02057d02 00000102  ...o......}.....
 0990 077f0100 00010405 c0000000 0104077e  ...............~
 09a0 00000009 04038600 00000101 08780200  .............x..
 09b0 000abd04 00000321 097f0000 00808f00  .......!........
 09c0 00fc0000 00019c2f 0100000b 6d000126  ......./....m..&
 09d0 0f7f0000 00015004 63002706 34000000  ......P.c.'.4...
 09e0 12000000 0c000000 046e0028 093b0000  .........n.(.;..
 09f0 00400000 00300000 00027300 2a098100  .@...0....s.*...
 0a00 00008700 00007300 00000269 002d102d  ......s....i.-.-
 0a10 000000d1 000000cb 00000005 c4040000  ................
 0a20 2e117800 0000f400 0000ec00 00000540  ..x............@
 0a30 0400002f 122f0100 002f0100 00170100  ..././.../......
 0a40 00026400 30102d00 00008f01 00008501  ..d.0.-.........
 0a50 00000003 78000000 004e0100 00050001  ....x....N......
 0a60 04e70400 0008cb04 00001d59 0500004d  ...........Y...M
 0a70 0400007c 90000014 0100000f 07000001  ...|............
 0a80 08077900 00000104 07830000 00090405  ..y.............
 0a90 696e7400 0a390400 0003d617 2d000000  int..9......-...
 0aa0 010805bb 00000001 08041602 00000101  ................
 0ab0 06710200 00010108 6f020000 0102057d  .q......o......}
 0ac0 02000001 02077f01 00000104 05c00000  ................
 0ad0 00037100 00000104 077e0000 000b0404  ..q......~......
 0ae0 84000000 02900000 00010108 78020000  ............x...
 0af0 03900000 00029700 000002ab 00000004  ................
 0b00 a1000000 0c0d4d05 0000041f 09840000  ......M.........
 0b10 007c9000 00140100 00019c47 0100000e  .|.........G....
 0b20 30050000 02311a86 00000001 50052b05  0....1......P.+.
 0b30 00003219 a6000000 dd010000 d5010000  ..2.............
 0b40 05540500 0033093b 00000011 02000007  .T...3.;........
 0b50 02000006 64737400 42098b00 00004902  ....dst.B.....I.
 0b60 00003f02 00000673 72630043 0f9c0000  ..?....src.C....
 0b70 00740200 00660200 00073505 00004409  .t...f....5...D.
 0b80 47010000 b6020000 ae020000 07410500  G............A..
 0b90 00450f4c 010000e6 020000d4 02000000  .E.L............
 0ba0 02710000 00027800 000000             .q....x....     
Contents of section .debug_abbrev:
 0000 01110010 06110112 01030e1b 0e250e13  .............%..
 0010 05000000 01110010 06110112 01030e1b  ................
 0020 0e250e13 05000000 010d0003 0e3a0b3b  .%...........:.;
 0030 0b390b49 13380b00 00022400 0b0b3e0b  .9.I.8....$...>.
 0040 030e0000 03160003 0e3a0b3b 0b390b49  .........:.;.9.I
 0050 13000004 35004913 00000534 00030e3a  ....5.I....4...:
 0060 21013b0b 390b4913 3f190218 0000060d  !.;.9.I.?.......
 0070 0003083a 0b3b0b39 0b491338 0b000007  ...:.;.9.I.8....
 0080 2800030e 1c0b0000 080f000b 21044913  (...........!.I.
 0090 00000905 00030e3a 21013b21 f802390b  .......:!.;!..9.
 00a0 49130218 00000a34 00030e3a 21013b05  I......4...:!.;.
 00b0 390b4913 02180000 0b2e003f 19030e3a  9.I........?...:
 00c0 21013b0b 390b2719 11011206 40187a19  !.;.9.'.....@.z.
 00d0 00000c13 01030e0b 0b3a2101 3b0b3921  .........:!.;.9!
 00e0 10011300 000d3400 03083a21 033b0b39  ......4...:!.;.9
 00f0 0b49133f 193c1900 000e1301 0b0b3a21  .I.?.<........:!
 0100 043b0b39 21090113 00000f34 00030e3a  .;.9!......4...:
 0110 21013b0b 39211049 133f193c 19000010  !.;.9!.I.?.<....
 0120 01014913 01130000 11340047 133a2101  ..I......4.G.:!.
 0130 3b0b390b 02180000 122e013f 19030e3a  ;.9........?...:
 0140 21013b05 39210627 19110112 0640187c  !.;.9!.'.....@.|
 0150 19011300 00132e00 3f19030e 3a21013b  ........?...:!.;
 0160 0b392106 27191101 12064018 7c190000  .9!.'.....@.|...
 0170 142e003f 19030e3a 21013b0b 390b2719  ...?...:!.;.9.'.
 0180 49131101 12064018 7a190000 15110125  I.....@.z......%
 0190 0e130b03 0e1b0e11 01120610 17000016  ................
 01a0 24000b0b 3e0b0308 00001721 0049132f  $...>......!.I./
 01b0 0b000018 04013e0b 0b0b4913 3a0b3b0b  ......>...I.:.;.
 01c0 390b0113 00001921 0049132f 0500001a  9......!.I./....
 01d0 2e003f19 030e3a0b 3b0b390b 27194913  ..?...:.;.9.'.I.
 01e0 3c190000 1b050003 083a0b3b 05390b49  <........:.;.9.I
 01f0 13021800 001c2e01 3f19030e 3a0b3b0b  ........?...:.;.
 0200 390b2719 11011206 40187c19 01130000  9.'.....@.|.....
 0210 1d050003 083a0b3b 0b390b49 13021800  .....:.;.9.I....
 0220 001e2e01 3f19030e 3a0b3b0b 390b4913  ....?...:.;.9.I.
 0230 11011206 40187a19 01130000 1f340003  ....@.z......4..
 0240 083a0b3b 0b390b49 13021800 00202e01  .:.;.9.I..... ..
 0250 3f19030e 3a0b3b0b 390b2719 11011206  ?...:.;.9.'.....
 0260 40187a19 01130000 21050003 0e3a0b3b  @.z.....!....:.;
 0270 0b390b49 13021800 0000010d 00030e3a  .9.I...........:
 0280 21033b0b 39211549 13380b00 00022400  !.;.9!.I.8....$.
 0290 0b0b3e0b 030e0000 03340003 0e3a2102  ..>......4...:!.
 02a0 3b0b3921 09491302 18000004 34000308  ;.9!.I......4...
 02b0 3a0b3b0b 390b4913 02180000 05010149  :.;.9.I........I
 02c0 13011300 00062100 49132f0b 00000734  ......!.I./....4
 02d0 00030e3a 21023b0b 390b4913 3f190218  ...:!.;.9.I.?...
 02e0 0000080b 01110112 06000009 0500030e  ................
 02f0 3a21023b 0b390b49 13021800 000a3500  :!.;.9.I......5.
 0300 49130000 0b160003 0e3a0b3b 0b390b49  I........:.;.9.I
 0310 1300000c 2e003f19 030e3a21 053b0b39  ......?...:!.;.9
 0320 21062719 3c190000 0d2e013f 19030e3a  !.'.<......?...:
 0330 21013b0b 39210627 19110112 0640187c  !.;.9!.'.....@.|
 0340 19011300 000e2e00 3f19030e 3a21013b  ........?...:!.;
 0350 0b392106 27191101 12064018 7c190000  .9!.'.....@.|...
 0360 0f2e013f 19030e3a 21023b0b 39210611  ...?...:!.;.9!..
 0370 01120640 187c1901 13000010 1101250e  ...@.|........%.
 0380 130b030e 1b0e1101 12061017 00001124  ...............$
 0390 000b0b3e 0b030800 00121301 0b0b3a0b  ...>..........:.
 03a0 3b0b390b 01130000 13210049 132f0500  ;.9......!.I./..
 03b0 00142e01 3f19030e 3a0b3b0b 390b2719  ....?...:.;.9.'.
 03c0 3c190113 00001505 00491300 00162e01  <........I......
 03d0 3f19030e 3a0b3b0b 390b2719 11011206  ?...:.;.9.'.....
 03e0 40187a19 01130000 172e013f 19030e3a  @.z........?...:
 03f0 0b3b0b39 0b271949 13110112 0640187a  .;.9.'.I.....@.z
 0400 19011300 00182e01 3f19030e 3a0b3b0b  ........?...:.;.
 0410 390b2719 11011206 40187a19 00001905  9.'.....@.z.....
 0420 0003083a 0b3b0b39 0b491302 18000000  ...:.;.9.I......
 0430 0124000b 0b3e0b03 0e000002 34000308  .$...>......4...
 0440 3a21013b 0b390b49 130217b7 42170000  :!.;.9.I....B...
 0450 030f000b 21044913 00000405 0003083a  ....!.I........:
 0460 21013b0b 390b4913 0217b742 17000005  !.;.9.I....B....
 0470 3400030e 3a21013b 0b390b49 130217b7  4...:!.;.9.I....
 0480 42170000 06110125 0e130b03 0e1b0e11  B......%........
 0490 01120610 17000007 24000b0b 3e0b0308  ........$...>...
 04a0 00000816 00030e3a 0b3b0b39 0b491300  .......:.;.9.I..
 04b0 00090f00 0b0b0000 0a2e013f 19030e3a  ...........?...:
 04c0 0b3b0b39 0b271949 13110112 0640187a  .;.9.'.I.....@.z
 04d0 19011300 000b0500 03083a0b 3b0b390b  ..........:.;.9.
 04e0 49130218 00000001 24000b0b 3e0b030e  I.......$...>...
 04f0 0000020f 000b2104 49130000 03260049  ......!.I....&.I
 0500 13000004 37004913 00000505 00030e3a  ....7.I........:
 0510 21023b0b 390b4913 0217b742 17000006  !.;.9.I....B....
 0520 34000308 3a21023b 0b390b49 130217b7  4...:!.;.9.I....
 0530 42170000 07340003 0e3a2102 3b0b390b  B....4...:!.;.9.
 0540 49130217 b7421700 00081101 250e130b  I....B......%...
 0550 030e1b0e 11011206 10170000 0924000b  .............$..
 0560 0b3e0b03 0800000a 1600030e 3a0b3b0b  .>..........:.;.
 0570 390b4913 00000b0f 000b0b00 000c2600  9.I...........&.
 0580 00000d2e 013f1903 0e3a0b3b 0b390b27  .....?...:.;.9.'
 0590 19491311 01120640 187a1901 1300000e  .I.....@.z......
 05a0 0500030e 3a0b3b0b 390b4913 02180000  ....:.;.9.I.....
 05b0 00                                   .               
Contents of section .debug_aranges:
 0000 1c000000 02000000 00000400 00000000  ................
 0010 00800000 dc000000 00000000 00000000  ................
 0020 1c000000 02002600 00000400 00000000  ......&.........
 0030 e0800000 c4000000 00000000 00000000  ................
 0040 1c000000 02004c00 00000400 00000000  ......L.........
 0050 a4810000 f4070000 00000000 00000000  ................
 0060 1c000000 02005505 00000400 00000000  ......U.........
 0070 98890000 e8050000 00000000 00000000  ................
 0080 1c000000 02002409 00000400 00000000  ......$.........
 0090 808f0000 fc000000 00000000 00000000  ................
 00a0 1c000000 0200590a 00000400 00000000  ......Y.........
 00b0 7c900000 14010000 00000000 00000000  |...............
Contents of section .debug_str:
 0000 626f6f74 2e73002f 686f6d65 2f6c6162  boot.s./home/lab
 0010 70726f63 2d706373 2f746563 6c61646f  proc-pcs/teclado
 0020 5f626172 616c6469 2f6c6162 70726f63  _baraldi/labproc
 0030 2f746563 6c61646f 00474e55 20415320  /teclado.GNU AS 
 0040 322e3432 00737769 7463682e 73007463  2.42.switch.s.tc
 0050 625f6c6c 5f740054 41534b5f 52454144  b_ll_t.TASK_READ
 0060 59007465 726d696e 6174655f 63757272  Y.terminate_curr
 0070 656e745f 7461736b 006c6f6e 67206c6f  ent_task.long lo
 0080 6e672075 6e736967 6e656420 696e7400  ng unsigned int.
 0090 69646c65 5f696478 00746362 31007072  idle_idx.tcb1.pr
 00a0 65656d70 7469626c 65006e65 78740073  eemptible.next.s
 00b0 6c656570 5f756e74 696c006c 6f6e6720  leep_until.long 
 00c0 6c6f6e67 20696e74 0070656e 64696e67  long int.pending
 00d0 5f310070 656e6469 6e675f32 00746173  _1.pending_2.tas
 00e0 6b5f7374 6174655f 74007374 61746500  k_state_t.state.
 00f0 7463625f 6c697374 0074696d 65736c69  tcb_list.timesli
 0100 63650074 696d6572 5f726567 5f740054  ce.timer_reg_t.T
 0110 41534b5f 424c4f43 4b454400 636f6e74  ASK_BLOCKED.cont
 0120 726f6c00 6c6c5f73 697a6500 70616e69  rol.ll_size.pani
 0130 63007472 6174615f 73776900 76616c75  c.trata_swi.valu
 0140 6500696e 73657274 5f746362 00544153  e.insert_tcb.TAS
 0150 4b5f5445 524d494e 41544544 0072656c  K_TERMINATED.rel
 0160 6f616400 73636865 64756c65 00726177  oad.schedule.raw
 0170 5f697271 0069646c 655f7461 736b0073  _irq.idle_task.s
 0180 686f7274 20756e73 69676e65 6420696e  hort unsigned in
 0190 74006765 74746963 6b73006c 6173745f  t.getticks.last_
 01a0 74696400 74726174 615f6972 71007463  tid.trata_irq.tc
 01b0 625f6964 6c650047 4e552043 31372031  b_idle.GNU C17 1
 01c0 332e322e 31203230 32333130 3039202d  3.2.1 20231009 -
 01d0 6d74756e 653d636f 72746578 2d613720  mtune=cortex-a7 
 01e0 2d6d666c 6f61742d 6162693d 736f6674  -mfloat-abi=soft
 01f0 202d6d61 726d202d 6d617263 683d6172   -marm -march=ar
 0200 6d76372d 61202d67 00656e61 626c655f  mv7-a -g.enable_
 0210 62617369 63006c6f 6e672064 6f75626c  basic.long doubl
 0220 65007374 61636b5f 75736572 31005441  e.stack_user1.TA
 0230 534b5f52 554e4e49 4e470064 69736162  SK_RUNNING.disab
 0240 6c655f31 00646973 61626c65 5f32006d  le_1.disable_2.m
 0250 61736b65 645f6972 71007469 636b735f  asked_irq.ticks_
 0260 746f5f73 6c656570 005f426f 6f6c0075  to_sleep._Bool.u
 0270 6e736967 6e656420 63686172 0073686f  nsigned char.sho
 0280 72742069 6e740063 6f756e74 65720070  rt int.counter.p
 0290 656e6469 6e675f62 61736963 00706373  ending_basic.pcs
 02a0 5f657869 74007569 6e743332 5f740072  _exit.uint32_t.r
 02b0 65677300 64697361 626c655f 62617369  egs.disable_basi
 02c0 63007463 625f7300 7463625f 74007463  c.tcb_s.tcb_t.tc
 02d0 625f6c6c 00796965 6c640065 6e61626c  b_ll.yield.enabl
 02e0 655f3100 656e6162 6c655f32 00736368  e_1.enable_2.sch
 02f0 65645f69 6e697400 6972715f 7265675f  ed_init.irq_reg_
 0300 74007569 6e74385f 74006669 6e645f6e  t.uint8_t.find_n
 0310 6578745f 68656164 00676574 70696400  ext_head.getpid.
 0320 75736572 315f6d61 696e0073 63686564  user1_main.sched
 0330 2e630067 70636c72 00726561 645f6d61  .c.gpclr.read_ma
 0340 74726978 00696e64 65780067 706c656e  trix.index.gplen
 0350 0067706c 65760067 70617265 6e006770  .gplev.gparen.gp
 0360 73657400 77726974 655f696f 00757365  set.write_io.use
 0370 72325f6d 61696e00 6f666673 65740072  r2_main.offset.r
 0380 6561645f 6770696f 00677072 656e0067  ead_gpio.gpren.g
 0390 70667365 6c006f75 745f7069 6e730072  pfsel.out_pins.r
 03a0 6561645f 696f0067 70616665 6e006770  ead_io.gpafen.gp
 03b0 65647300 72656164 5f6b6579 626f6172  eds.read_keyboar
 03c0 64007365 7475705f 696f0069 6e5f7069  d.setup_io.in_pi
 03d0 6e73006d 61696e2e 6300696e 69745f6b  ns.main.c.init_k
 03e0 6579626f 61726400 67706665 6e006770  eyboard.gpfen.gp
 03f0 696f5f6f 6e006770 70756463 6c6b0067  io_on.gppudclk.g
 0400 70696f5f 7265675f 74006c61 73745f6f  pio_reg_t.last_o
 0410 75747075 74006770 68656e00 67707075  utput.gphen.gppu
 0420 64007573 6572335f 6d61696e 00737973  d.user3_main.sys
 0430 74656d5f 6d61696e 0073697a 655f7400  tem_main.size_t.
 0440 616c6967 6e65645f 61646472 002f6275  aligned_addr./bu
 0450 696c642f 6e65776c 69622d33 3856304a  ild/newlib-38V0J
 0460 432f6e65 776c6962 2d342e34 2e302e32  C/newlib-4.4.0.2
 0470 30323331 3233312f 6275696c 645f6e61  0231231/build_na
 0480 6e6f2f61 726d2d6e 6f6e652d 65616269  no/arm-none-eabi
 0490 2f6e6577 6c696200 2e2e2f2e 2e2f2e2e  /newlib.../../..
 04a0 2f6e6577 6c69622f 6c696263 2f737472  /newlib/libc/str
 04b0 696e672f 6d656d73 65742e63 006d656d  ing/memset.c.mem
 04c0 73657400 62756666 65720047 4e552043  set.buffer.GNU C
 04d0 31372031 332e322e 31203230 32333130  17 13.2.1 202310
 04e0 3039202d 6d637075 3d61726d 3774646d  09 -mcpu=arm7tdm
 04f0 69202d6d 666c6f61 742d6162 693d736f  i -mfloat-abi=so
 0500 6674202d 6d61726d 202d6d61 7263683d  ft -marm -march=
 0510 61726d76 3474202d 67202d4f 32202d66  armv4t -g -O2 -f
 0520 6e6f2d62 75696c74 696e0073 72633000  no-builtin.src0.
 0530 64737430 00616c69 676e6564 5f647374  dst0.aligned_dst
 0540 00616c69 676e6564 5f737263 006d656d  .aligned_src.mem
 0550 63707900 6c656e30 002e2e2f 2e2e2f2e  cpy.len0.../../.
 0560 2e2f6e65 776c6962 2f6c6962 632f6d61  ./newlib/libc/ma
 0570 6368696e 652f6172 6d2f6d65 6d637079  chine/arm/memcpy
 0580 2d737475 622e6300                    -stub.c.        
Contents of section .debug_frame:
 0000 0c000000 ffffffff 0100027c 0e0c0d00  ...........|....
 0010 0c000000 00000000 a4810000 14000000  ................
 0020 0c000000 00000000 b8810000 18000000  ................
 0030 0c000000 00000000 d0810000 18000000  ................
 0040 0c000000 00000000 e8810000 14000000  ................
 0050 0c000000 00000000 fc810000 18000000  ................
 0060 1c000000 00000000 14820000 1c010000  ................
 0070 420e048b 01420d0b 02860d0d 42cb0e00  B....B......B...
 0080 1c000000 00000000 30830000 2c000000  ........0...,...
 0090 420e048b 01420d0b 4e0d0d42 cb0e0000  B....B..N..B....
 00a0 18000000 00000000 5c830000 d4000000  ........\.......
 00b0 420e088b 028e0142 0c0b0400 1c000000  B......B........
 00c0 00000000 30840000 e4000000 420e088b  ....0.......B...
 00d0 028e0142 0c0b0402 6c0c0d08 18000000  ...B....l.......
 00e0 00000000 14850000 74000000 420e088b  ........t...B...
 00f0 028e0142 0c0b0400 20000000 00000000  ...B.... .......
 0100 88850000 20020000 420e088b 028e0142  .... ...B......B
 0110 0c0b0403 0a010c0d 08000000 28000000  ............(...
 0120 00000000 a8870000 f0010000 420e1042  ............B..B
 0130 0e188b06 8e05420c 0b1402ec 0c0d1842  ......B........B
 0140 cecb0e10 420e0000 0c000000 ffffffff  ....B...........
 0150 0100027c 0e0c0d00 1c000000 48010000  ...|........H...
 0160 98890000 1c010000 420e048b 01420d0b  ........B....B..
 0170 02860d0d 42cb0e00 1c000000 48010000  ....B.......H...
 0180 b48a0000 a4000000 420e048b 01420d0b  ........B....B..
 0190 024a0d0d 42cb0e00 1c000000 48010000  .J..B.......H...
 01a0 588b0000 bc000000 420e048b 01420d0b  X.......B....B..
 01b0 02560d0d 42cb0e00 1c000000 48010000  .V..B.......H...
 01c0 148c0000 c8000000 420e088b 028e0142  ........B......B
 01d0 0c0b0402 5e0c0d08 18000000 48010000  ....^.......H...
 01e0 dc8c0000 b8010000 420e088b 028e0142  ........B......B
 01f0 0c0b0400 18000000 48010000 948e0000  ........H.......
 0200 1c000000 420e088b 028e0142 0c0b0400  ....B......B....
 0210 18000000 48010000 b08e0000 14000000  ....H...........
 0220 420e088b 028e0142 0c0b0400 18000000  B......B........
 0230 48010000 c48e0000 44000000 420e088b  H.......D...B...
 0240 028e0142 0c0b0400 1c000000 48010000  ...B........H...
 0250 088f0000 78000000 420e088b 028e0142  ....x...B......B
 0260 0c0b0476 0c0d0800 0c000000 ffffffff  ...v............
 0270 0100027c 0e0c0d00 20000000 68020000  ...|.... ...h...
 0280 808f0000 fc000000 440e0c84 0385028e  ........D.......
 0290 01026a0a cec5c40e 00420b00 0c000000  ..j......B......
 02a0 ffffffff 0100027c 0e0c0d00 28000000  .......|....(...
 02b0 9c020000 7c900000 14010000 6c0e1884  ....|.......l...
 02c0 06850586 04870388 028e0102 5ccec8c7  ............\...
 02d0 c6c5c40e 00000000                    ........        
Contents of section .debug_loclists:
 0000 c5010000 05000400 00000000 00000000  ................
 0010 00000400 c4010151 04c401e0 010aa303  .......Q........
 0020 a50126a8 2da8009f 04e001fc 01015100  ..&.-.........Q.
 0030 00000000 00000000 01000000 00000000  ................
 0040 04001401 52041424 01530424 2803737f  ....R..$.S.$(.s.
 0050 9f04282c 0153042c 3803737f 9f049801  ..(,.S.,8.s.....
 0060 9c010153 04e001e8 01015304 e801f401  ...S......S.....
 0070 01520002 00000202 00000000 01010000  .R..............
 0080 00000000 00000004 00240150 04242c01  .........$.P.$,.
 0090 5e042c30 037e019f 0430a001 015e04bc  ^.,0.~...0...^..
 00a0 01cc0101 5e04cc01 d001037e 019f04d0  ....^......~....
 00b0 01d80101 5e04e001 e401015e 04e801f4  ....^......^....
 00c0 01015004 f401fc01 015e0001 00000000  ..P......^......
 00d0 000450bc 01030820 9f04e001 e8010308  ..P.... ........
 00e0 209f04f4 01fc0103 08209f00 02000000   ........ ......
 00f0 00000000 0440500a 710008ff 1a0a0101  .....@P.q.......
 0100 1e9f0450 bc01015c 04e001e8 01015c04  ...P...\......\.
 0110 f401fc01 015c0001 00010101 01010101  .....\..........
 0120 00000000 00000101 00000000 00000004  ................
 0130 406c015e 046c7003 72749f04 70740372  @l.^.lp.rt..pt.r
 0140 789f0474 7803727c 9f047880 01015204  x..tx.r|..x...R.
 0150 80018c01 0372709f 0498019c 01015204  .....rp.......R.
 0160 ac01ac01 015204ac 01b00103 72049f04  .....R......r...
 0170 b001bc01 015204e0 01e80101 5204f401  .....R......R...
 0180 fc01015e 00060000 00000000 00000004  ...^............
 0190 00200671 0008ff1a 9f042038 01520438  . .q...... 8.R.8
 01a0 c4010671 0008ff1a 9f04c401 e0010da3  ...q............
 01b0 03a50126 a82da800 08ff1a9f 04e001fc  ...&.-..........
 01c0 01067100 08ff1a9f 00620100 00050004  ..q......b......
 01d0 00000000 00000000 00000000 00040028  ...............(
 01e0 01510428 3c0aa303 a50126a8 2da8009f  .Q.(<.....&.-...
 01f0 043ca801 015104a8 0194020a a303a501  .<...Q..........
 0200 26a82da8 009f0000 00000000 00000000  &.-.............
 0210 00040018 01520418 1c0aa303 a50226a8  .....R........&.
 0220 2da8009f 043c5001 5204506c 0aa303a5  -....<P.R.Pl....
 0230 0226a82d a8009f04 e401f001 01520002  .&.-.........R..
 0240 00000000 00000000 0004001c 0150043c  .............P.<
 0250 44015004 444c0153 044ce401 015004e4  D.P.DL.S.L...P..
 0260 01f40101 53000301 01000000 00000001  ....S...........
 0270 01000000 04002801 5104282c 0371019f  ......(.Q.(,.q..
 0280 042ca801 015104a8 01e4010a a303a501  .,...Q..........
 0290 26a82da8 009f04e4 01fc0101 5104fc01  &.-.........Q...
 02a0 80020371 019f0480 02940201 51000100  ...q........Q...
 02b0 00010100 0000046c 74037c04 9f047480  .......lt.|...t.
 02c0 01037c74 9f049001 a001015c 04a801c4  ..|t.......\....
 02d0 01015300 01010102 02030300 00000000  ..S.............
 02e0 00010100 0000046c 8001037e 749f0480  .......l...~t...
 02f0 01800103 7e789f04 80018001 037e7c9f  ....~x.......~|.
 0300 04800194 01015e04 9401a801 037e709f  ......^......~p.
 0310 04a801c4 01015104 c401c401 015404c4  ......Q......T..
 0320 01c80103 74049f04 c801e401 015400    ....t........T. 

Disassembly of section .boot:

00008000 <start>:
    8000:	e59ff018 	ldr	pc, [pc, #24]	@ 8020 <_reset>
    8004:	e59ff018 	ldr	pc, [pc, #24]	@ 8024 <_undef>
    8008:	e59ff018 	ldr	pc, [pc, #24]	@ 8028 <_swi>
    800c:	e59ff018 	ldr	pc, [pc, #24]	@ 802c <_iabort>
    8010:	e59ff018 	ldr	pc, [pc, #24]	@ 8030 <_dabort>
    8014:	e1a00000 	nop			@ (mov r0, r0)
    8018:	e59ff014 	ldr	pc, [pc, #20]	@ 8034 <_irq>
    801c:	e59ff014 	ldr	pc, [pc, #20]	@ 8038 <_fiq>

00008020 <_reset>:
    8020:	0000803c 	.word	0x0000803c

00008024 <_undef>:
    8024:	00008114 	.word	0x00008114

00008028 <_swi>:
    8028:	0000811c 	.word	0x0000811c

0000802c <_iabort>:
    802c:	00008114 	.word	0x00008114

00008030 <_dabort>:
    8030:	00008114 	.word	0x00008114

00008034 <_irq>:
    8034:	00008150 	.word	0x00008150

00008038 <_fiq>:
    8038:	00008114 	.word	0x00008114

0000803c <reset>:
    803c:	e10f0000 	mrs	r0, CPSR
    8040:	e200001f 	and	r0, r0, #31
    8044:	e350001a 	cmp	r0, #26
    8048:	1a000006 	bne	8068 <continua>
    804c:	e10f0000 	mrs	r0, CPSR
    8050:	e3c0001f 	bic	r0, r0, #31
    8054:	e3800013 	orr	r0, r0, #19
    8058:	e16ff000 	msr	SPSR_fsxc, r0
    805c:	e28fe004 	add	lr, pc, #4
    8060:	e12ef30e 	msr	ELR_hyp, lr
    8064:	e160006e 	eret

00008068 <continua>:
    8068:	ee100fb0 	mrc	15, 0, r0, cr0, cr0, {5}
    806c:	e3100003 	tst	r0, #3
    8070:	0a000000 	beq	8078 <core0>
    8074:	ea000026 	b	8114 <panic>

00008078 <core0>:
    8078:	e3a000d2 	mov	r0, #210	@ 0xd2
    807c:	e129f000 	msr	CPSR_fc, r0
    8080:	e59fd040 	ldr	sp, [pc, #64]	@ 80c8 <done_bss+0x4>
    8084:	e3a000d3 	mov	r0, #211	@ 0xd3
    8088:	e129f000 	msr	CPSR_fc, r0
    808c:	e59fd038 	ldr	sp, [pc, #56]	@ 80cc <done_bss+0x8>
    8090:	e59f0038 	ldr	r0, [pc, #56]	@ 80d0 <done_bss+0xc>
    8094:	e3a01000 	mov	r1, #0
    8098:	e8b003fc 	ldm	r0!, {r2, r3, r4, r5, r6, r7, r8, r9}
    809c:	e8a103fc 	stmia	r1!, {r2, r3, r4, r5, r6, r7, r8, r9}
    80a0:	e8b003fc 	ldm	r0!, {r2, r3, r4, r5, r6, r7, r8, r9}
    80a4:	e8a103fc 	stmia	r1!, {r2, r3, r4, r5, r6, r7, r8, r9}
    80a8:	e59f0024 	ldr	r0, [pc, #36]	@ 80d4 <done_bss+0x10>
    80ac:	e59f1024 	ldr	r1, [pc, #36]	@ 80d8 <done_bss+0x14>
    80b0:	e3a02000 	mov	r2, #0

000080b4 <loop_bss>:
    80b4:	e1500001 	cmp	r0, r1
    80b8:	aa000001 	bge	80c4 <done_bss>
    80bc:	e4c02001 	strb	r2, [r0], #1
    80c0:	eafffffb 	b	80b4 <loop_bss>

000080c4 <done_bss>:
    80c4:	ea000372 	b	8e94 <system_main>
    80c8:	00029268 	.word	0x00029268
    80cc:	00028268 	.word	0x00028268
    80d0:	00008000 	.word	0x00008000
    80d4:	000091b8 	.word	0x000091b8
    80d8:	00020268 	.word	0x00020268

Disassembly of section .text:

000080e0 <delay>:
    80e0:	e2500001 	subs	r0, r0, #1
    80e4:	1afffffd 	bne	80e0 <delay>
    80e8:	e1a0f00e 	mov	pc, lr

000080ec <enable_irq>:
    80ec:	e1b00000 	movs	r0, r0
    80f0:	0a000003 	beq	8104 <disable>
    80f4:	e10f0000 	mrs	r0, CPSR
    80f8:	e3c00080 	bic	r0, r0, #128	@ 0x80
    80fc:	e129f000 	msr	CPSR_fc, r0
    8100:	e1a0f00e 	mov	pc, lr

00008104 <disable>:
    8104:	e10f0000 	mrs	r0, CPSR
    8108:	e3800080 	orr	r0, r0, #128	@ 0x80
    810c:	e129f000 	msr	CPSR_fc, r0
    8110:	e1a0f00e 	mov	pc, lr

00008114 <panic>:
    8114:	e320f002 	wfe
    8118:	eafffffd 	b	8114 <panic>

0000811c <swi>:
    811c:	f10c00c0 	cpsid	if
    8120:	e52d0004 	push	{r0}		@ (str r0, [sp, #-4]!)
    8124:	e59f0074 	ldr	r0, [pc, #116]	@ 81a0 <task_switch+0x20>
    8128:	e5900000 	ldr	r0, [r0]
    812c:	e9c07ffe 	stmib	r0, {r1, r2, r3, r4, r5, r6, r7, r8, r9, sl, fp, ip, sp, lr}^
    8130:	e580e03c 	str	lr, [r0, #60]	@ 0x3c
    8134:	e14f1000 	mrs	r1, SPSR
    8138:	e5801040 	str	r1, [r0, #64]	@ 0x40
    813c:	e49d1004 	pop	{r1}		@ (ldr r1, [sp], #4)
    8140:	e5801000 	str	r1, [r0]
    8144:	e1a00001 	mov	r0, r1
    8148:	eb0000b8 	bl	8430 <trata_swi>
    814c:	ea00000b 	b	8180 <task_switch>

00008150 <irq>:
    8150:	e24ee004 	sub	lr, lr, #4
    8154:	e52d0004 	push	{r0}		@ (str r0, [sp, #-4]!)
    8158:	e59f0040 	ldr	r0, [pc, #64]	@ 81a0 <task_switch+0x20>
    815c:	e5900000 	ldr	r0, [r0]
    8160:	e9c07ffe 	stmib	r0, {r1, r2, r3, r4, r5, r6, r7, r8, r9, sl, fp, ip, sp, lr}^
    8164:	e580e03c 	str	lr, [r0, #60]	@ 0x3c
    8168:	e14f1000 	mrs	r1, SPSR
    816c:	e5801040 	str	r1, [r0, #64]	@ 0x40
    8170:	e49d1004 	pop	{r1}		@ (ldr r1, [sp], #4)
    8174:	e5801000 	str	r1, [r0]
    8178:	eb0000e5 	bl	8514 <trata_irq>
    817c:	eaffffff 	b	8180 <task_switch>

00008180 <task_switch>:
    8180:	e59f0018 	ldr	r0, [pc, #24]	@ 81a0 <task_switch+0x20>
    8184:	e5900000 	ldr	r0, [r0]
    8188:	e5901040 	ldr	r1, [r0, #64]	@ 0x40
    818c:	e169f001 	msr	SPSR_fc, r1
    8190:	e9d07ffe 	ldmib	r0, {r1, r2, r3, r4, r5, r6, r7, r8, r9, sl, fp, ip, sp, lr}^
    8194:	e590e03c 	ldr	lr, [r0, #60]	@ 0x3c
    8198:	e5900000 	ldr	r0, [r0]
    819c:	e1b0f00e 	movs	pc, lr
    81a0:	0001f218 	.word	0x0001f218

000081a4 <yield>:
    81a4:	e52de004 	push	{lr}		@ (str lr, [sp, #-4]!)
    81a8:	e3a00001 	mov	r0, #1
    81ac:	ef000000 	svc	0x00000000
    81b0:	e49df004 	pop	{pc}		@ (ldr pc, [sp], #4)
    81b4:	e320f000 	nop	{0}

000081b8 <getpid>:
    81b8:	e52de004 	push	{lr}		@ (str lr, [sp, #-4]!)
    81bc:	e3a00002 	mov	r0, #2
    81c0:	ef000000 	svc	0x00000000
    81c4:	e49df004 	pop	{pc}		@ (ldr pc, [sp], #4)
    81c8:	e320f000 	nop	{0}
    81cc:	e1a00003 	mov	r0, r3

000081d0 <getticks>:
    81d0:	e52de004 	push	{lr}		@ (str lr, [sp, #-4]!)
    81d4:	e3a00003 	mov	r0, #3
    81d8:	ef000000 	svc	0x00000000
    81dc:	e49df004 	pop	{pc}		@ (ldr pc, [sp], #4)
    81e0:	e320f000 	nop	{0}
    81e4:	e1a00003 	mov	r0, r3

000081e8 <pcs_exit>:
    81e8:	e52de004 	push	{lr}		@ (str lr, [sp, #-4]!)
    81ec:	e3a00004 	mov	r0, #4
    81f0:	ef000000 	svc	0x00000000
    81f4:	e49df004 	pop	{pc}		@ (ldr pc, [sp], #4)
    81f8:	e320f000 	nop	{0}

000081fc <sleep>:
    81fc:	e52de004 	push	{lr}		@ (str lr, [sp, #-4]!)
    8200:	e1a01000 	mov	r1, r0
    8204:	e3a00005 	mov	r0, #5
    8208:	ef000000 	svc	0x00000000
    820c:	e49df004 	pop	{pc}		@ (ldr pc, [sp], #4)
    8210:	e320f000 	nop	{0}

00008214 <find_next_head>:
    8214:	e52db004 	push	{fp}		@ (str fp, [sp, #-4]!)
    8218:	e28db000 	add	fp, sp, #0
    821c:	e24dd00c 	sub	sp, sp, #12
    8220:	e30f3214 	movw	r3, #61972	@ 0xf214
    8224:	e3403001 	movt	r3, #1
    8228:	e5933000 	ldr	r3, [r3]
    822c:	e3730001 	cmn	r3, #1
    8230:	1a000006 	bne	8250 <find_next_head+0x3c>
    8234:	e3093190 	movw	r3, #37264	@ 0x9190
    8238:	e3403000 	movt	r3, #0
    823c:	e5933000 	ldr	r3, [r3]
    8240:	e5932048 	ldr	r2, [r3, #72]	@ 0x48
    8244:	e3093190 	movw	r3, #37264	@ 0x9190
    8248:	e3403000 	movt	r3, #0
    824c:	e5832000 	str	r2, [r3]
    8250:	e3093190 	movw	r3, #37264	@ 0x9190
    8254:	e3403000 	movt	r3, #0
    8258:	e5933000 	ldr	r3, [r3]
    825c:	e5933048 	ldr	r3, [r3, #72]	@ 0x48
    8260:	e50b3008 	str	r3, [fp, #-8]
    8264:	ea000018 	b	82cc <find_next_head+0xb8>
    8268:	e51b3008 	ldr	r3, [fp, #-8]
    826c:	e5d33051 	ldrb	r3, [r3, #81]	@ 0x51
    8270:	e6ef3073 	uxtb	r3, r3
    8274:	e3530002 	cmp	r3, #2
    8278:	1a000009 	bne	82a4 <find_next_head+0x90>
    827c:	e51b3008 	ldr	r3, [fp, #-8]
    8280:	e5932054 	ldr	r2, [r3, #84]	@ 0x54
    8284:	e30931b8 	movw	r3, #37304	@ 0x91b8
    8288:	e3403000 	movt	r3, #0
    828c:	e5933000 	ldr	r3, [r3]
    8290:	e1520003 	cmp	r2, r3
    8294:	8a000002 	bhi	82a4 <find_next_head+0x90>
    8298:	e51b3008 	ldr	r3, [fp, #-8]
    829c:	e3a02000 	mov	r2, #0
    82a0:	e5c32051 	strb	r2, [r3, #81]	@ 0x51
    82a4:	e51b3008 	ldr	r3, [fp, #-8]
    82a8:	e5d33051 	ldrb	r3, [r3, #81]	@ 0x51
    82ac:	e6ef3073 	uxtb	r3, r3
    82b0:	e3530000 	cmp	r3, #0
    82b4:	1a000001 	bne	82c0 <find_next_head+0xac>
    82b8:	e51b3008 	ldr	r3, [fp, #-8]
    82bc:	ea000017 	b	8320 <find_next_head+0x10c>
    82c0:	e51b3008 	ldr	r3, [fp, #-8]
    82c4:	e5933048 	ldr	r3, [r3, #72]	@ 0x48
    82c8:	e50b3008 	str	r3, [fp, #-8]
    82cc:	e3093190 	movw	r3, #37264	@ 0x9190
    82d0:	e3403000 	movt	r3, #0
    82d4:	e5933000 	ldr	r3, [r3]
    82d8:	e51b2008 	ldr	r2, [fp, #-8]
    82dc:	e1520003 	cmp	r2, r3
    82e0:	1affffe0 	bne	8268 <find_next_head+0x54>
    82e4:	e51b3008 	ldr	r3, [fp, #-8]
    82e8:	e5d33051 	ldrb	r3, [r3, #81]	@ 0x51
    82ec:	e6ef3073 	uxtb	r3, r3
    82f0:	e3530000 	cmp	r3, #0
    82f4:	1a000001 	bne	8300 <find_next_head+0xec>
    82f8:	e51b3008 	ldr	r3, [fp, #-8]
    82fc:	ea000007 	b	8320 <find_next_head+0x10c>
    8300:	e3093190 	movw	r3, #37264	@ 0x9190
    8304:	e3403000 	movt	r3, #0
    8308:	e5932000 	ldr	r2, [r3]
    830c:	e30f31bc 	movw	r3, #61884	@ 0xf1bc
    8310:	e3403001 	movt	r3, #1
    8314:	e5832048 	str	r2, [r3, #72]	@ 0x48
    8318:	e30f31bc 	movw	r3, #61884	@ 0xf1bc
    831c:	e3403001 	movt	r3, #1
    8320:	e1a00003 	mov	r0, r3
    8324:	e28bd000 	add	sp, fp, #0
    8328:	e49db004 	pop	{fp}		@ (ldr fp, [sp], #4)
    832c:	e12fff1e 	bx	lr

00008330 <terminate_current_task>:
    8330:	e52db004 	push	{fp}		@ (str fp, [sp, #-4]!)
    8334:	e28db000 	add	fp, sp, #0
    8338:	e3093190 	movw	r3, #37264	@ 0x9190
    833c:	e3403000 	movt	r3, #0
    8340:	e5933000 	ldr	r3, [r3]
    8344:	e3a02003 	mov	r2, #3
    8348:	e5c32051 	strb	r2, [r3, #81]	@ 0x51
    834c:	e320f000 	nop	{0}
    8350:	e28bd000 	add	sp, fp, #0
    8354:	e49db004 	pop	{fp}		@ (ldr fp, [sp], #4)
    8358:	e12fff1e 	bx	lr

0000835c <schedule>:
    835c:	e92d4800 	push	{fp, lr}
    8360:	e28db004 	add	fp, sp, #4
    8364:	e3093190 	movw	r3, #37264	@ 0x9190
    8368:	e3403000 	movt	r3, #0
    836c:	e5933000 	ldr	r3, [r3]
    8370:	e5d33051 	ldrb	r3, [r3, #81]	@ 0x51
    8374:	e6ef3073 	uxtb	r3, r3
    8378:	e3530001 	cmp	r3, #1
    837c:	1a000004 	bne	8394 <schedule+0x38>
    8380:	e3093190 	movw	r3, #37264	@ 0x9190
    8384:	e3403000 	movt	r3, #0
    8388:	e5933000 	ldr	r3, [r3]
    838c:	e3a02000 	mov	r2, #0
    8390:	e5c32051 	strb	r2, [r3, #81]	@ 0x51
    8394:	ebffff9e 	bl	8214 <find_next_head>
    8398:	e1a02000 	mov	r2, r0
    839c:	e3093190 	movw	r3, #37264	@ 0x9190
    83a0:	e3403000 	movt	r3, #0
    83a4:	e5832000 	str	r2, [r3]
    83a8:	e3093190 	movw	r3, #37264	@ 0x9190
    83ac:	e3403000 	movt	r3, #0
    83b0:	e5933000 	ldr	r3, [r3]
    83b4:	e5932044 	ldr	r2, [r3, #68]	@ 0x44
    83b8:	e30f3214 	movw	r3, #61972	@ 0xf214
    83bc:	e3403001 	movt	r3, #1
    83c0:	e5832000 	str	r2, [r3]
    83c4:	e3093190 	movw	r3, #37264	@ 0x9190
    83c8:	e3403000 	movt	r3, #0
    83cc:	e5933000 	ldr	r3, [r3]
    83d0:	e1a02003 	mov	r2, r3
    83d4:	e30f3218 	movw	r3, #61976	@ 0xf218
    83d8:	e3403001 	movt	r3, #1
    83dc:	e5832000 	str	r2, [r3]
    83e0:	e3093190 	movw	r3, #37264	@ 0x9190
    83e4:	e3403000 	movt	r3, #0
    83e8:	e5933000 	ldr	r3, [r3]
    83ec:	e3a02001 	mov	r2, #1
    83f0:	e5c32051 	strb	r2, [r3, #81]	@ 0x51
    83f4:	e3093190 	movw	r3, #37264	@ 0x9190
    83f8:	e3403000 	movt	r3, #0
    83fc:	e5933000 	ldr	r3, [r3]
    8400:	e593304c 	ldr	r3, [r3, #76]	@ 0x4c
    8404:	e3530000 	cmp	r3, #0
    8408:	0a000006 	beq	8428 <schedule+0xcc>
    840c:	e3093190 	movw	r3, #37264	@ 0x9190
    8410:	e3403000 	movt	r3, #0
    8414:	e5932000 	ldr	r2, [r3]
    8418:	e3a03b2d 	mov	r3, #46080	@ 0xb400
    841c:	e3433f00 	movt	r3, #16128	@ 0x3f00
    8420:	e592204c 	ldr	r2, [r2, #76]	@ 0x4c
    8424:	e5832000 	str	r2, [r3]
    8428:	e320f000 	nop	{0}
    842c:	e8bd8800 	pop	{fp, pc}

00008430 <trata_swi>:
    8430:	e92d4800 	push	{fp, lr}
    8434:	e28db004 	add	fp, sp, #4
    8438:	e24dd008 	sub	sp, sp, #8
    843c:	e50b0008 	str	r0, [fp, #-8]
    8440:	e51b3008 	ldr	r3, [fp, #-8]
    8444:	e2433001 	sub	r3, r3, #1
    8448:	e3530004 	cmp	r3, #4
    844c:	979ff103 	ldrls	pc, [pc, r3, lsl #2]
    8450:	ea00002c 	b	8508 <trata_swi+0xd8>
    8454:	00008468 	.word	0x00008468
    8458:	00008470 	.word	0x00008470
    845c:	00008490 	.word	0x00008490
    8460:	000084b0 	.word	0x000084b0
    8464:	000084bc 	.word	0x000084bc
    8468:	ebffffbb 	bl	835c <schedule>
    846c:	ea000025 	b	8508 <trata_swi+0xd8>
    8470:	e30f3214 	movw	r3, #61972	@ 0xf214
    8474:	e3403001 	movt	r3, #1
    8478:	e5932000 	ldr	r2, [r3]
    847c:	e30f3218 	movw	r3, #61976	@ 0xf218
    8480:	e3403001 	movt	r3, #1
    8484:	e5933000 	ldr	r3, [r3]
    8488:	e5832000 	str	r2, [r3]
    848c:	ea00001d 	b	8508 <trata_swi+0xd8>
    8490:	e30f3218 	movw	r3, #61976	@ 0xf218
    8494:	e3403001 	movt	r3, #1
    8498:	e5932000 	ldr	r2, [r3]
    849c:	e30931b8 	movw	r3, #37304	@ 0x91b8
    84a0:	e3403000 	movt	r3, #0
    84a4:	e5933000 	ldr	r3, [r3]
    84a8:	e5823000 	str	r3, [r2]
    84ac:	ea000015 	b	8508 <trata_swi+0xd8>
    84b0:	ebffff9e 	bl	8330 <terminate_current_task>
    84b4:	ebffffa8 	bl	835c <schedule>
    84b8:	ea000012 	b	8508 <trata_swi+0xd8>
    84bc:	e30f3218 	movw	r3, #61976	@ 0xf218
    84c0:	e3403001 	movt	r3, #1
    84c4:	e5933000 	ldr	r3, [r3]
    84c8:	e5931004 	ldr	r1, [r3, #4]
    84cc:	e30931b8 	movw	r3, #37304	@ 0x91b8
    84d0:	e3403000 	movt	r3, #0
    84d4:	e5932000 	ldr	r2, [r3]
    84d8:	e3093190 	movw	r3, #37264	@ 0x9190
    84dc:	e3403000 	movt	r3, #0
    84e0:	e5933000 	ldr	r3, [r3]
    84e4:	e0812002 	add	r2, r1, r2
    84e8:	e5832054 	str	r2, [r3, #84]	@ 0x54
    84ec:	e3093190 	movw	r3, #37264	@ 0x9190
    84f0:	e3403000 	movt	r3, #0
    84f4:	e5933000 	ldr	r3, [r3]
    84f8:	e3a02002 	mov	r2, #2
    84fc:	e5c32051 	strb	r2, [r3, #81]	@ 0x51
    8500:	ebffff95 	bl	835c <schedule>
    8504:	e320f000 	nop	{0}
    8508:	e320f000 	nop	{0}
    850c:	e24bd004 	sub	sp, fp, #4
    8510:	e8bd8800 	pop	{fp, pc}

00008514 <trata_irq>:
    8514:	e92d4800 	push	{fp, lr}
    8518:	e28db004 	add	fp, sp, #4
    851c:	e3a03cb2 	mov	r3, #45568	@ 0xb200
    8520:	e3433f00 	movt	r3, #16128	@ 0x3f00
    8524:	e5933000 	ldr	r3, [r3]
    8528:	e2033001 	and	r3, r3, #1
    852c:	e3530000 	cmp	r3, #0
    8530:	0a000012 	beq	8580 <trata_irq+0x6c>
    8534:	e3a03b2d 	mov	r3, #46080	@ 0xb400
    8538:	e3433f00 	movt	r3, #16128	@ 0x3f00
    853c:	e3a02001 	mov	r2, #1
    8540:	e583200c 	str	r2, [r3, #12]
    8544:	e30931b8 	movw	r3, #37304	@ 0x91b8
    8548:	e3403000 	movt	r3, #0
    854c:	e5933000 	ldr	r3, [r3]
    8550:	e2832001 	add	r2, r3, #1
    8554:	e30931b8 	movw	r3, #37304	@ 0x91b8
    8558:	e3403000 	movt	r3, #0
    855c:	e5832000 	str	r2, [r3]
    8560:	e3093190 	movw	r3, #37264	@ 0x9190
    8564:	e3403000 	movt	r3, #0
    8568:	e5933000 	ldr	r3, [r3]
    856c:	e5d33050 	ldrb	r3, [r3, #80]	@ 0x50
    8570:	e6ef3073 	uxtb	r3, r3
    8574:	e3530000 	cmp	r3, #0
    8578:	0a000000 	beq	8580 <trata_irq+0x6c>
    857c:	ebffff76 	bl	835c <schedule>
    8580:	e320f000 	nop	{0}
    8584:	e8bd8800 	pop	{fp, pc}

00008588 <sched_init>:
    8588:	e92d4800 	push	{fp, lr}
    858c:	e28db004 	add	fp, sp, #4
    8590:	e24dd090 	sub	sp, sp, #144	@ 0x90
    8594:	e24b304c 	sub	r3, fp, #76	@ 0x4c
    8598:	e3a02044 	mov	r2, #68	@ 0x44
    859c:	e3a01000 	mov	r1, #0
    85a0:	e1a00003 	mov	r0, r3
    85a4:	eb000275 	bl	8f80 <memset>
    85a8:	e30a3268 	movw	r3, #41576	@ 0xa268
    85ac:	e3403002 	movt	r3, #2
    85b0:	e50b3018 	str	r3, [fp, #-24]	@ 0xffffffe8
    85b4:	e3083eb0 	movw	r3, #36528	@ 0x8eb0
    85b8:	e3403000 	movt	r3, #0
    85bc:	e50b3010 	str	r3, [fp, #-16]
    85c0:	e3a03010 	mov	r3, #16
    85c4:	e50b300c 	str	r3, [fp, #-12]
    85c8:	e24b3090 	sub	r3, fp, #144	@ 0x90
    85cc:	e3a02044 	mov	r2, #68	@ 0x44
    85d0:	e3a01000 	mov	r1, #0
    85d4:	e1a00003 	mov	r0, r3
    85d8:	eb000268 	bl	8f80 <memset>
    85dc:	e3083114 	movw	r3, #33044	@ 0x8114
    85e0:	e3403000 	movt	r3, #0
    85e4:	e50b3054 	str	r3, [fp, #-84]	@ 0xffffffac
    85e8:	e3a03010 	mov	r3, #16
    85ec:	e50b3050 	str	r3, [fp, #-80]	@ 0xffffffb0
    85f0:	e30931bc 	movw	r3, #37308	@ 0x91bc
    85f4:	e3403000 	movt	r3, #0
    85f8:	e1a00003 	mov	r0, r3
    85fc:	e24b304c 	sub	r3, fp, #76	@ 0x4c
    8600:	e3a02044 	mov	r2, #68	@ 0x44
    8604:	e1a01003 	mov	r1, r3
    8608:	eb00029b 	bl	907c <memcpy>
    860c:	e30931bc 	movw	r3, #37308	@ 0x91bc
    8610:	e3403000 	movt	r3, #0
    8614:	e3a02000 	mov	r2, #0
    8618:	e5832044 	str	r2, [r3, #68]	@ 0x44
    861c:	e30931bc 	movw	r3, #37308	@ 0x91bc
    8620:	e3403000 	movt	r3, #0
    8624:	e30921bc 	movw	r2, #37308	@ 0x91bc
    8628:	e3402000 	movt	r2, #0
    862c:	e5832048 	str	r2, [r3, #72]	@ 0x48
    8630:	e30931bc 	movw	r3, #37308	@ 0x91bc
    8634:	e3403000 	movt	r3, #0
    8638:	e3a02000 	mov	r2, #0
    863c:	e5c32051 	strb	r2, [r3, #81]	@ 0x51
    8640:	e30931bc 	movw	r3, #37308	@ 0x91bc
    8644:	e3403000 	movt	r3, #0
    8648:	e3a02000 	mov	r2, #0
    864c:	e5832054 	str	r2, [r3, #84]	@ 0x54
    8650:	e30921bc 	movw	r2, #37308	@ 0x91bc
    8654:	e3402000 	movt	r2, #0
    8658:	e3a03c2d 	mov	r3, #11520	@ 0x2d00
    865c:	e3403131 	movt	r3, #305	@ 0x131
    8660:	e582304c 	str	r3, [r2, #76]	@ 0x4c
    8664:	e30931bc 	movw	r3, #37308	@ 0x91bc
    8668:	e3403000 	movt	r3, #0
    866c:	e3a02001 	mov	r2, #1
    8670:	e5c32050 	strb	r2, [r3, #80]	@ 0x50
    8674:	e30f3220 	movw	r3, #61984	@ 0xf220
    8678:	e3403001 	movt	r3, #1
    867c:	e5933000 	ldr	r3, [r3]
    8680:	e2832001 	add	r2, r3, #1
    8684:	e30f3220 	movw	r3, #61984	@ 0xf220
    8688:	e3403001 	movt	r3, #1
    868c:	e5832000 	str	r2, [r3]
    8690:	e30f321c 	movw	r3, #61980	@ 0xf21c
    8694:	e3403001 	movt	r3, #1
    8698:	e5933000 	ldr	r3, [r3]
    869c:	e2832001 	add	r2, r3, #1
    86a0:	e30f321c 	movw	r3, #61980	@ 0xf21c
    86a4:	e3403001 	movt	r3, #1
    86a8:	e5832000 	str	r2, [r3]
    86ac:	e30f321c 	movw	r3, #61980	@ 0xf21c
    86b0:	e3403001 	movt	r3, #1
    86b4:	e5933000 	ldr	r3, [r3]
    86b8:	e50b3008 	str	r3, [fp, #-8]
    86bc:	e30f31bc 	movw	r3, #61884	@ 0xf1bc
    86c0:	e3403001 	movt	r3, #1
    86c4:	e1a00003 	mov	r0, r3
    86c8:	e24b3090 	sub	r3, fp, #144	@ 0x90
    86cc:	e3a02044 	mov	r2, #68	@ 0x44
    86d0:	e1a01003 	mov	r1, r3
    86d4:	eb000268 	bl	907c <memcpy>
    86d8:	e30f31bc 	movw	r3, #61884	@ 0xf1bc
    86dc:	e3403001 	movt	r3, #1
    86e0:	e3e02000 	mvn	r2, #0
    86e4:	e5832044 	str	r2, [r3, #68]	@ 0x44
    86e8:	e30f31bc 	movw	r3, #61884	@ 0xf1bc
    86ec:	e3403001 	movt	r3, #1
    86f0:	e3a02000 	mov	r2, #0
    86f4:	e5832048 	str	r2, [r3, #72]	@ 0x48
    86f8:	e30f31bc 	movw	r3, #61884	@ 0xf1bc
    86fc:	e3403001 	movt	r3, #1
    8700:	e3a02000 	mov	r2, #0
    8704:	e5c32051 	strb	r2, [r3, #81]	@ 0x51
    8708:	e30f21bc 	movw	r2, #61884	@ 0xf1bc
    870c:	e3402001 	movt	r2, #1
    8710:	e3a03d35 	mov	r3, #3392	@ 0xd40
    8714:	e3403003 	movt	r3, #3
    8718:	e582304c 	str	r3, [r2, #76]	@ 0x4c
    871c:	e30f31bc 	movw	r3, #61884	@ 0xf1bc
    8720:	e3403001 	movt	r3, #1
    8724:	e3a02001 	mov	r2, #1
    8728:	e5c32050 	strb	r2, [r3, #80]	@ 0x50
    872c:	e30f31bc 	movw	r3, #61884	@ 0xf1bc
    8730:	e3403001 	movt	r3, #1
    8734:	e3a02000 	mov	r2, #0
    8738:	e5832054 	str	r2, [r3, #84]	@ 0x54
    873c:	e30f3214 	movw	r3, #61972	@ 0xf214
    8740:	e3403001 	movt	r3, #1
    8744:	e3a02000 	mov	r2, #0
    8748:	e5832000 	str	r2, [r3]
    874c:	e3093190 	movw	r3, #37264	@ 0x9190
    8750:	e3403000 	movt	r3, #0
    8754:	e5933000 	ldr	r3, [r3]
    8758:	e1a02003 	mov	r2, r3
    875c:	e30f3218 	movw	r3, #61976	@ 0xf218
    8760:	e3403001 	movt	r3, #1
    8764:	e5832000 	str	r2, [r3]
    8768:	e3a03b2d 	mov	r3, #46080	@ 0xb400
    876c:	e3433f00 	movt	r3, #16128	@ 0x3f00
    8770:	e3a02d35 	mov	r2, #3392	@ 0xd40
    8774:	e3402003 	movt	r2, #3
    8778:	e5832000 	str	r2, [r3]
    877c:	e3a03b2d 	mov	r3, #46080	@ 0xb400
    8780:	e3433f00 	movt	r3, #16128	@ 0x3f00
    8784:	e30022a2 	movw	r2, #674	@ 0x2a2
    8788:	e5832008 	str	r2, [r3, #8]
    878c:	e3a03cb2 	mov	r3, #45568	@ 0xb200
    8790:	e3433f00 	movt	r3, #16128	@ 0x3f00
    8794:	e3a02001 	mov	r2, #1
    8798:	e5832018 	str	r2, [r3, #24]
    879c:	e320f000 	nop	{0}
    87a0:	e24bd004 	sub	sp, fp, #4
    87a4:	e8bd8800 	pop	{fp, pc}

000087a8 <insert_tcb>:
    87a8:	e24dd010 	sub	sp, sp, #16
    87ac:	e92d4800 	push	{fp, lr}
    87b0:	e28db004 	add	fp, sp, #4
    87b4:	e24dd008 	sub	sp, sp, #8
    87b8:	e50b0008 	str	r0, [fp, #-8]
    87bc:	e28b0008 	add	r0, fp, #8
    87c0:	e880000e 	stm	r0, {r1, r2, r3}
    87c4:	e30f3220 	movw	r3, #61984	@ 0xf220
    87c8:	e3403001 	movt	r3, #1
    87cc:	e5933000 	ldr	r3, [r3]
    87d0:	e2832001 	add	r2, r3, #1
    87d4:	e30f3220 	movw	r3, #61984	@ 0xf220
    87d8:	e3403001 	movt	r3, #1
    87dc:	e5832000 	str	r2, [r3]
    87e0:	e30f321c 	movw	r3, #61980	@ 0xf21c
    87e4:	e3403001 	movt	r3, #1
    87e8:	e5933000 	ldr	r3, [r3]
    87ec:	e2832001 	add	r2, r3, #1
    87f0:	e30f321c 	movw	r3, #61980	@ 0xf21c
    87f4:	e3403001 	movt	r3, #1
    87f8:	e5832000 	str	r2, [r3]
    87fc:	e30f321c 	movw	r3, #61980	@ 0xf21c
    8800:	e3403001 	movt	r3, #1
    8804:	e5933000 	ldr	r3, [r3]
    8808:	e3530b01 	cmp	r3, #1024	@ 0x400
    880c:	aa00005c 	bge	8984 <insert_tcb+0x1dc>
    8810:	e30f321c 	movw	r3, #61980	@ 0xf21c
    8814:	e3403001 	movt	r3, #1
    8818:	e5932000 	ldr	r2, [r3]
    881c:	e30931bc 	movw	r3, #37308	@ 0x91bc
    8820:	e3403000 	movt	r3, #0
    8824:	e3a01058 	mov	r1, #88	@ 0x58
    8828:	e0020291 	mul	r2, r1, r2
    882c:	e0833002 	add	r3, r3, r2
    8830:	e1a00003 	mov	r0, r3
    8834:	e28b3008 	add	r3, fp, #8
    8838:	e3a02044 	mov	r2, #68	@ 0x44
    883c:	e1a01003 	mov	r1, r3
    8840:	eb00020d 	bl	907c <memcpy>
    8844:	e30f321c 	movw	r3, #61980	@ 0xf21c
    8848:	e3403001 	movt	r3, #1
    884c:	e5931000 	ldr	r1, [r3]
    8850:	e30f3220 	movw	r3, #61984	@ 0xf220
    8854:	e3403001 	movt	r3, #1
    8858:	e5932000 	ldr	r2, [r3]
    885c:	e30931bc 	movw	r3, #37308	@ 0x91bc
    8860:	e3403000 	movt	r3, #0
    8864:	e3a00058 	mov	r0, #88	@ 0x58
    8868:	e0010190 	mul	r1, r0, r1
    886c:	e0833001 	add	r3, r3, r1
    8870:	e2833044 	add	r3, r3, #68	@ 0x44
    8874:	e5832000 	str	r2, [r3]
    8878:	e30f321c 	movw	r3, #61980	@ 0xf21c
    887c:	e3403001 	movt	r3, #1
    8880:	e5931000 	ldr	r1, [r3]
    8884:	e51b3008 	ldr	r3, [fp, #-8]
    8888:	e5932048 	ldr	r2, [r3, #72]	@ 0x48
    888c:	e30931bc 	movw	r3, #37308	@ 0x91bc
    8890:	e3403000 	movt	r3, #0
    8894:	e3a00058 	mov	r0, #88	@ 0x58
    8898:	e0010190 	mul	r1, r0, r1
    889c:	e0833001 	add	r3, r3, r1
    88a0:	e2833048 	add	r3, r3, #72	@ 0x48
    88a4:	e5832000 	str	r2, [r3]
    88a8:	e30f321c 	movw	r3, #61980	@ 0xf21c
    88ac:	e3403001 	movt	r3, #1
    88b0:	e5932000 	ldr	r2, [r3]
    88b4:	e30931bc 	movw	r3, #37308	@ 0x91bc
    88b8:	e3403000 	movt	r3, #0
    88bc:	e3a01058 	mov	r1, #88	@ 0x58
    88c0:	e0020291 	mul	r2, r1, r2
    88c4:	e0833002 	add	r3, r3, r2
    88c8:	e2833051 	add	r3, r3, #81	@ 0x51
    88cc:	e3a02000 	mov	r2, #0
    88d0:	e5c32000 	strb	r2, [r3]
    88d4:	e30f321c 	movw	r3, #61980	@ 0xf21c
    88d8:	e3403001 	movt	r3, #1
    88dc:	e5932000 	ldr	r2, [r3]
    88e0:	e30931bc 	movw	r3, #37308	@ 0x91bc
    88e4:	e3403000 	movt	r3, #0
    88e8:	e3a01058 	mov	r1, #88	@ 0x58
    88ec:	e0020291 	mul	r2, r1, r2
    88f0:	e0833002 	add	r3, r3, r2
    88f4:	e283304c 	add	r3, r3, #76	@ 0x4c
    88f8:	e59b204c 	ldr	r2, [fp, #76]	@ 0x4c
    88fc:	e5832000 	str	r2, [r3]
    8900:	e30f321c 	movw	r3, #61980	@ 0xf21c
    8904:	e3403001 	movt	r3, #1
    8908:	e5932000 	ldr	r2, [r3]
    890c:	e30931bc 	movw	r3, #37308	@ 0x91bc
    8910:	e3403000 	movt	r3, #0
    8914:	e3a01058 	mov	r1, #88	@ 0x58
    8918:	e0020291 	mul	r2, r1, r2
    891c:	e0833002 	add	r3, r3, r2
    8920:	e2833050 	add	r3, r3, #80	@ 0x50
    8924:	e5db2050 	ldrb	r2, [fp, #80]	@ 0x50
    8928:	e5c32000 	strb	r2, [r3]
    892c:	e30f321c 	movw	r3, #61980	@ 0xf21c
    8930:	e3403001 	movt	r3, #1
    8934:	e5932000 	ldr	r2, [r3]
    8938:	e30931bc 	movw	r3, #37308	@ 0x91bc
    893c:	e3403000 	movt	r3, #0
    8940:	e3a01058 	mov	r1, #88	@ 0x58
    8944:	e0020291 	mul	r2, r1, r2
    8948:	e0833002 	add	r3, r3, r2
    894c:	e2833054 	add	r3, r3, #84	@ 0x54
    8950:	e3a02000 	mov	r2, #0
    8954:	e5832000 	str	r2, [r3]
    8958:	e30f321c 	movw	r3, #61980	@ 0xf21c
    895c:	e3403001 	movt	r3, #1
    8960:	e5933000 	ldr	r3, [r3]
    8964:	e3a02058 	mov	r2, #88	@ 0x58
    8968:	e0020392 	mul	r2, r2, r3
    896c:	e30931bc 	movw	r3, #37308	@ 0x91bc
    8970:	e3403000 	movt	r3, #0
    8974:	e0822003 	add	r2, r2, r3
    8978:	e51b3008 	ldr	r3, [fp, #-8]
    897c:	e5832048 	str	r2, [r3, #72]	@ 0x48
    8980:	ea000000 	b	8988 <insert_tcb+0x1e0>
    8984:	e320f000 	nop	{0}
    8988:	e24bd004 	sub	sp, fp, #4
    898c:	e8bd4800 	pop	{fp, lr}
    8990:	e28dd010 	add	sp, sp, #16
    8994:	e12fff1e 	bx	lr

00008998 <setup_io>:
    8998:	e52db004 	push	{fp}		@ (str fp, [sp, #-4]!)
    899c:	e28db000 	add	fp, sp, #0
    89a0:	e24dd014 	sub	sp, sp, #20
    89a4:	e50b0010 	str	r0, [fp, #-16]
    89a8:	e1a03001 	mov	r3, r1
    89ac:	e54b3011 	strb	r3, [fp, #-17]	@ 0xffffffef
    89b0:	e51b2010 	ldr	r2, [fp, #-16]
    89b4:	e3063667 	movw	r3, #26215	@ 0x6667
    89b8:	e3463666 	movt	r3, #26214	@ 0x6666
    89bc:	e0c31293 	smull	r1, r3, r3, r2
    89c0:	e1a01143 	asr	r1, r3, #2
    89c4:	e1a03fc2 	asr	r3, r2, #31
    89c8:	e0413003 	sub	r3, r1, r3
    89cc:	e50b3008 	str	r3, [fp, #-8]
    89d0:	e51b3010 	ldr	r3, [fp, #-16]
    89d4:	e3062667 	movw	r2, #26215	@ 0x6667
    89d8:	e3462666 	movt	r2, #26214	@ 0x6666
    89dc:	e0c21392 	smull	r1, r2, r2, r3
    89e0:	e1a01142 	asr	r1, r2, #2
    89e4:	e1a02fc3 	asr	r2, r3, #31
    89e8:	e0412002 	sub	r2, r1, r2
    89ec:	e3a0100a 	mov	r1, #10
    89f0:	e0020291 	mul	r2, r1, r2
    89f4:	e0433002 	sub	r3, r3, r2
    89f8:	e50b300c 	str	r3, [fp, #-12]
    89fc:	e55b3011 	ldrb	r3, [fp, #-17]	@ 0xffffffef
    8a00:	e3530000 	cmp	r3, #0
    8a04:	0a000016 	beq	8a64 <setup_io+0xcc>
    8a08:	e3a03000 	mov	r3, #0
    8a0c:	e3433f20 	movt	r3, #16160	@ 0x3f20
    8a10:	e51b2008 	ldr	r2, [fp, #-8]
    8a14:	e7933102 	ldr	r3, [r3, r2, lsl #2]
    8a18:	e51b200c 	ldr	r2, [fp, #-12]
    8a1c:	e3a01003 	mov	r1, #3
    8a20:	e0020291 	mul	r2, r1, r2
    8a24:	e3a01007 	mov	r1, #7
    8a28:	e1a02211 	lsl	r2, r1, r2
    8a2c:	e1e02002 	mvn	r2, r2
    8a30:	e0022003 	and	r2, r2, r3
    8a34:	e51b300c 	ldr	r3, [fp, #-12]
    8a38:	e3a01003 	mov	r1, #3
    8a3c:	e0030391 	mul	r3, r1, r3
    8a40:	e3a01001 	mov	r1, #1
    8a44:	e1a03311 	lsl	r3, r1, r3
    8a48:	e1a01003 	mov	r1, r3
    8a4c:	e3a03000 	mov	r3, #0
    8a50:	e3433f20 	movt	r3, #16160	@ 0x3f20
    8a54:	e1821001 	orr	r1, r2, r1
    8a58:	e51b2008 	ldr	r2, [fp, #-8]
    8a5c:	e7831102 	str	r1, [r3, r2, lsl #2]
    8a60:	ea00000f 	b	8aa4 <setup_io+0x10c>
    8a64:	e3a03000 	mov	r3, #0
    8a68:	e3433f20 	movt	r3, #16160	@ 0x3f20
    8a6c:	e51b2008 	ldr	r2, [fp, #-8]
    8a70:	e7932102 	ldr	r2, [r3, r2, lsl #2]
    8a74:	e51b300c 	ldr	r3, [fp, #-12]
    8a78:	e3a01003 	mov	r1, #3
    8a7c:	e0030391 	mul	r3, r1, r3
    8a80:	e3a01007 	mov	r1, #7
    8a84:	e1a03311 	lsl	r3, r1, r3
    8a88:	e1e03003 	mvn	r3, r3
    8a8c:	e1a01003 	mov	r1, r3
    8a90:	e3a03000 	mov	r3, #0
    8a94:	e3433f20 	movt	r3, #16160	@ 0x3f20
    8a98:	e0011002 	and	r1, r1, r2
    8a9c:	e51b2008 	ldr	r2, [fp, #-8]
    8aa0:	e7831102 	str	r1, [r3, r2, lsl #2]
    8aa4:	e320f000 	nop	{0}
    8aa8:	e28bd000 	add	sp, fp, #0
    8aac:	e49db004 	pop	{fp}		@ (ldr fp, [sp], #4)
    8ab0:	e12fff1e 	bx	lr

00008ab4 <read_io>:
    8ab4:	e52db004 	push	{fp}		@ (str fp, [sp, #-4]!)
    8ab8:	e28db000 	add	fp, sp, #0
    8abc:	e24dd01c 	sub	sp, sp, #28
    8ac0:	e50b0018 	str	r0, [fp, #-24]	@ 0xffffffe8
    8ac4:	e51b3018 	ldr	r3, [fp, #-24]	@ 0xffffffe8
    8ac8:	e283201f 	add	r2, r3, #31
    8acc:	e3530000 	cmp	r3, #0
    8ad0:	b1a03002 	movlt	r3, r2
    8ad4:	a1a03003 	movge	r3, r3
    8ad8:	e1a032c3 	asr	r3, r3, #5
    8adc:	e50b3008 	str	r3, [fp, #-8]
    8ae0:	e51b3018 	ldr	r3, [fp, #-24]	@ 0xffffffe8
    8ae4:	e2732000 	rsbs	r2, r3, #0
    8ae8:	e203301f 	and	r3, r3, #31
    8aec:	e202201f 	and	r2, r2, #31
    8af0:	52623000 	rsbpl	r3, r2, #0
    8af4:	e50b300c 	str	r3, [fp, #-12]
    8af8:	e3a02000 	mov	r2, #0
    8afc:	e3432f20 	movt	r2, #16160	@ 0x3f20
    8b00:	e51b3008 	ldr	r3, [fp, #-8]
    8b04:	e283300c 	add	r3, r3, #12
    8b08:	e1a03103 	lsl	r3, r3, #2
    8b0c:	e0823003 	add	r3, r2, r3
    8b10:	e5933004 	ldr	r3, [r3, #4]
    8b14:	e3a01001 	mov	r1, #1
    8b18:	e51b200c 	ldr	r2, [fp, #-12]
    8b1c:	e1a02211 	lsl	r2, r1, r2
    8b20:	e0033002 	and	r3, r3, r2
    8b24:	e50b3010 	str	r3, [fp, #-16]
    8b28:	e3a02001 	mov	r2, #1
    8b2c:	e51b300c 	ldr	r3, [fp, #-12]
    8b30:	e1a03312 	lsl	r3, r2, r3
    8b34:	e51b2010 	ldr	r2, [fp, #-16]
    8b38:	e1520003 	cmp	r2, r3
    8b3c:	03a03001 	moveq	r3, #1
    8b40:	13a03000 	movne	r3, #0
    8b44:	e6ef3073 	uxtb	r3, r3
    8b48:	e1a00003 	mov	r0, r3
    8b4c:	e28bd000 	add	sp, fp, #0
    8b50:	e49db004 	pop	{fp}		@ (ldr fp, [sp], #4)
    8b54:	e12fff1e 	bx	lr

00008b58 <write_io>:
    8b58:	e52db004 	push	{fp}		@ (str fp, [sp, #-4]!)
    8b5c:	e28db000 	add	fp, sp, #0
    8b60:	e24dd014 	sub	sp, sp, #20
    8b64:	e50b0010 	str	r0, [fp, #-16]
    8b68:	e1a03001 	mov	r3, r1
    8b6c:	e54b3011 	strb	r3, [fp, #-17]	@ 0xffffffef
    8b70:	e51b3010 	ldr	r3, [fp, #-16]
    8b74:	e283201f 	add	r2, r3, #31
    8b78:	e3530000 	cmp	r3, #0
    8b7c:	b1a03002 	movlt	r3, r2
    8b80:	a1a03003 	movge	r3, r3
    8b84:	e1a032c3 	asr	r3, r3, #5
    8b88:	e50b3008 	str	r3, [fp, #-8]
    8b8c:	e51b3010 	ldr	r3, [fp, #-16]
    8b90:	e2732000 	rsbs	r2, r3, #0
    8b94:	e203301f 	and	r3, r3, #31
    8b98:	e202201f 	and	r2, r2, #31
    8b9c:	52623000 	rsbpl	r3, r2, #0
    8ba0:	e50b300c 	str	r3, [fp, #-12]
    8ba4:	e55b3011 	ldrb	r3, [fp, #-17]	@ 0xffffffef
    8ba8:	e3530000 	cmp	r3, #0
    8bac:	0a00000b 	beq	8be0 <write_io+0x88>
    8bb0:	e3a02001 	mov	r2, #1
    8bb4:	e51b300c 	ldr	r3, [fp, #-12]
    8bb8:	e1a03312 	lsl	r3, r2, r3
    8bbc:	e3a02000 	mov	r2, #0
    8bc0:	e3432f20 	movt	r2, #16160	@ 0x3f20
    8bc4:	e1a01003 	mov	r1, r3
    8bc8:	e51b3008 	ldr	r3, [fp, #-8]
    8bcc:	e2833006 	add	r3, r3, #6
    8bd0:	e1a03103 	lsl	r3, r3, #2
    8bd4:	e0823003 	add	r3, r2, r3
    8bd8:	e5831004 	str	r1, [r3, #4]
    8bdc:	ea000008 	b	8c04 <write_io+0xac>
    8be0:	e3a02001 	mov	r2, #1
    8be4:	e51b300c 	ldr	r3, [fp, #-12]
    8be8:	e1a02312 	lsl	r2, r2, r3
    8bec:	e3a03000 	mov	r3, #0
    8bf0:	e3433f20 	movt	r3, #16160	@ 0x3f20
    8bf4:	e1a01002 	mov	r1, r2
    8bf8:	e51b2008 	ldr	r2, [fp, #-8]
    8bfc:	e282200a 	add	r2, r2, #10
    8c00:	e7831102 	str	r1, [r3, r2, lsl #2]
    8c04:	e320f000 	nop	{0}
    8c08:	e28bd000 	add	sp, fp, #0
    8c0c:	e49db004 	pop	{fp}		@ (ldr fp, [sp], #4)
    8c10:	e12fff1e 	bx	lr

00008c14 <init_keyboard>:
    8c14:	e92d4800 	push	{fp, lr}
    8c18:	e28db004 	add	fp, sp, #4
    8c1c:	e24dd008 	sub	sp, sp, #8
    8c20:	e3a01001 	mov	r1, #1
    8c24:	e3a00013 	mov	r0, #19
    8c28:	ebffff5a 	bl	8998 <setup_io>
    8c2c:	e3a01001 	mov	r1, #1
    8c30:	e3a0000d 	mov	r0, #13
    8c34:	ebffff57 	bl	8998 <setup_io>
    8c38:	e3a01001 	mov	r1, #1
    8c3c:	e3a00006 	mov	r0, #6
    8c40:	ebffff54 	bl	8998 <setup_io>
    8c44:	e3a01001 	mov	r1, #1
    8c48:	e3a00005 	mov	r0, #5
    8c4c:	ebffff51 	bl	8998 <setup_io>
    8c50:	e3a01000 	mov	r1, #0
    8c54:	e3a00010 	mov	r0, #16
    8c58:	ebffff4e 	bl	8998 <setup_io>
    8c5c:	e3a01000 	mov	r1, #0
    8c60:	e3a00014 	mov	r0, #20
    8c64:	ebffff4b 	bl	8998 <setup_io>
    8c68:	e3a01000 	mov	r1, #0
    8c6c:	e3a0000c 	mov	r0, #12
    8c70:	ebffff48 	bl	8998 <setup_io>
    8c74:	e3a01000 	mov	r1, #0
    8c78:	e3a00015 	mov	r0, #21
    8c7c:	ebffff45 	bl	8998 <setup_io>
    8c80:	e3a03000 	mov	r3, #0
    8c84:	e50b3008 	str	r3, [fp, #-8]
    8c88:	ea000009 	b	8cb4 <init_keyboard+0xa0>
    8c8c:	e3093194 	movw	r3, #37268	@ 0x9194
    8c90:	e3403000 	movt	r3, #0
    8c94:	e51b2008 	ldr	r2, [fp, #-8]
    8c98:	e7933102 	ldr	r3, [r3, r2, lsl #2]
    8c9c:	e3a01000 	mov	r1, #0
    8ca0:	e1a00003 	mov	r0, r3
    8ca4:	ebffffab 	bl	8b58 <write_io>
    8ca8:	e51b3008 	ldr	r3, [fp, #-8]
    8cac:	e2833001 	add	r3, r3, #1
    8cb0:	e50b3008 	str	r3, [fp, #-8]
    8cb4:	e51b3008 	ldr	r3, [fp, #-8]
    8cb8:	e3530003 	cmp	r3, #3
    8cbc:	dafffff2 	ble	8c8c <init_keyboard+0x78>
    8cc0:	e30f3264 	movw	r3, #62052	@ 0xf264
    8cc4:	e3403001 	movt	r3, #1
    8cc8:	e3a02000 	mov	r2, #0
    8ccc:	e5832000 	str	r2, [r3]
    8cd0:	e320f000 	nop	{0}
    8cd4:	e24bd004 	sub	sp, fp, #4
    8cd8:	e8bd8800 	pop	{fp, pc}

00008cdc <read_keyboard>:
    8cdc:	e92d4800 	push	{fp, lr}
    8ce0:	e28db004 	add	fp, sp, #4
    8ce4:	e24dd008 	sub	sp, sp, #8
    8ce8:	e3a03000 	mov	r3, #0
    8cec:	e50b3008 	str	r3, [fp, #-8]
    8cf0:	ea000063 	b	8e84 <read_keyboard+0x1a8>
    8cf4:	e3093194 	movw	r3, #37268	@ 0x9194
    8cf8:	e3403000 	movt	r3, #0
    8cfc:	e51b2008 	ldr	r2, [fp, #-8]
    8d00:	e7933102 	ldr	r3, [r3, r2, lsl #2]
    8d04:	e3a01001 	mov	r1, #1
    8d08:	e1a00003 	mov	r0, r3
    8d0c:	ebffff91 	bl	8b58 <write_io>
    8d10:	e3a03000 	mov	r3, #0
    8d14:	e50b300c 	str	r3, [fp, #-12]
    8d18:	ea00004c 	b	8e50 <read_keyboard+0x174>
    8d1c:	e30931a4 	movw	r3, #37284	@ 0x91a4
    8d20:	e3403000 	movt	r3, #0
    8d24:	e51b200c 	ldr	r2, [fp, #-12]
    8d28:	e7933102 	ldr	r3, [r3, r2, lsl #2]
    8d2c:	e1a00003 	mov	r0, r3
    8d30:	ebffff5f 	bl	8ab4 <read_io>
    8d34:	e1a03000 	mov	r3, r0
    8d38:	e3530000 	cmp	r3, #0
    8d3c:	0a000038 	beq	8e24 <read_keyboard+0x148>
    8d40:	e30f3224 	movw	r3, #61988	@ 0xf224
    8d44:	e3403001 	movt	r3, #1
    8d48:	e51b200c 	ldr	r2, [fp, #-12]
    8d4c:	e1a01102 	lsl	r1, r2, #2
    8d50:	e51b2008 	ldr	r2, [fp, #-8]
    8d54:	e0812002 	add	r2, r1, r2
    8d58:	e7933102 	ldr	r3, [r3, r2, lsl #2]
    8d5c:	e3530063 	cmp	r3, #99	@ 0x63
    8d60:	ca00000f 	bgt	8da4 <read_keyboard+0xc8>
    8d64:	e30f3224 	movw	r3, #61988	@ 0xf224
    8d68:	e3403001 	movt	r3, #1
    8d6c:	e51b200c 	ldr	r2, [fp, #-12]
    8d70:	e1a01102 	lsl	r1, r2, #2
    8d74:	e51b2008 	ldr	r2, [fp, #-8]
    8d78:	e0812002 	add	r2, r1, r2
    8d7c:	e7933102 	ldr	r3, [r3, r2, lsl #2]
    8d80:	e2831001 	add	r1, r3, #1
    8d84:	e30f3224 	movw	r3, #61988	@ 0xf224
    8d88:	e3403001 	movt	r3, #1
    8d8c:	e51b200c 	ldr	r2, [fp, #-12]
    8d90:	e1a00102 	lsl	r0, r2, #2
    8d94:	e51b2008 	ldr	r2, [fp, #-8]
    8d98:	e0802002 	add	r2, r0, r2
    8d9c:	e7831102 	str	r1, [r3, r2, lsl #2]
    8da0:	ea000027 	b	8e44 <read_keyboard+0x168>
    8da4:	e51b300c 	ldr	r3, [fp, #-12]
    8da8:	e1a01103 	lsl	r1, r3, #2
    8dac:	e30f3264 	movw	r3, #62052	@ 0xf264
    8db0:	e3403001 	movt	r3, #1
    8db4:	e5932000 	ldr	r2, [r3]
    8db8:	e2820001 	add	r0, r2, #1
    8dbc:	e30f3264 	movw	r3, #62052	@ 0xf264
    8dc0:	e3403001 	movt	r3, #1
    8dc4:	e5830000 	str	r0, [r3]
    8dc8:	e51b3008 	ldr	r3, [fp, #-8]
    8dcc:	e0811003 	add	r1, r1, r3
    8dd0:	e30f3268 	movw	r3, #62056	@ 0xf268
    8dd4:	e3403001 	movt	r3, #1
    8dd8:	e7831102 	str	r1, [r3, r2, lsl #2]
    8ddc:	e30f3224 	movw	r3, #61988	@ 0xf224
    8de0:	e3403001 	movt	r3, #1
    8de4:	e51b200c 	ldr	r2, [fp, #-12]
    8de8:	e1a01102 	lsl	r1, r2, #2
    8dec:	e51b2008 	ldr	r2, [fp, #-8]
    8df0:	e0812002 	add	r2, r1, r2
    8df4:	e3a01000 	mov	r1, #0
    8df8:	e7831102 	str	r1, [r3, r2, lsl #2]
    8dfc:	e30f3264 	movw	r3, #62052	@ 0xf264
    8e00:	e3403001 	movt	r3, #1
    8e04:	e5933000 	ldr	r3, [r3]
    8e08:	e3530b01 	cmp	r3, #1024	@ 0x400
    8e0c:	ba00000c 	blt	8e44 <read_keyboard+0x168>
    8e10:	e30f3264 	movw	r3, #62052	@ 0xf264
    8e14:	e3403001 	movt	r3, #1
    8e18:	e3a02000 	mov	r2, #0
    8e1c:	e5832000 	str	r2, [r3]
    8e20:	ea000007 	b	8e44 <read_keyboard+0x168>
    8e24:	e30f3224 	movw	r3, #61988	@ 0xf224
    8e28:	e3403001 	movt	r3, #1
    8e2c:	e51b200c 	ldr	r2, [fp, #-12]
    8e30:	e1a01102 	lsl	r1, r2, #2
    8e34:	e51b2008 	ldr	r2, [fp, #-8]
    8e38:	e0812002 	add	r2, r1, r2
    8e3c:	e3a01000 	mov	r1, #0
    8e40:	e7831102 	str	r1, [r3, r2, lsl #2]
    8e44:	e51b300c 	ldr	r3, [fp, #-12]
    8e48:	e2833001 	add	r3, r3, #1
    8e4c:	e50b300c 	str	r3, [fp, #-12]
    8e50:	e51b300c 	ldr	r3, [fp, #-12]
    8e54:	e3530003 	cmp	r3, #3
    8e58:	daffffaf 	ble	8d1c <read_keyboard+0x40>
    8e5c:	e3093194 	movw	r3, #37268	@ 0x9194
    8e60:	e3403000 	movt	r3, #0
    8e64:	e51b2008 	ldr	r2, [fp, #-8]
    8e68:	e7933102 	ldr	r3, [r3, r2, lsl #2]
    8e6c:	e3a01000 	mov	r1, #0
    8e70:	e1a00003 	mov	r0, r3
    8e74:	ebffff37 	bl	8b58 <write_io>
    8e78:	e51b3008 	ldr	r3, [fp, #-8]
    8e7c:	e2833001 	add	r3, r3, #1
    8e80:	e50b3008 	str	r3, [fp, #-8]
    8e84:	e51b3008 	ldr	r3, [fp, #-8]
    8e88:	e3530003 	cmp	r3, #3
    8e8c:	daffff98 	ble	8cf4 <read_keyboard+0x18>
    8e90:	eaffff94 	b	8ce8 <read_keyboard+0xc>

00008e94 <system_main>:
    8e94:	e92d4800 	push	{fp, lr}
    8e98:	e28db004 	add	fp, sp, #4
    8e9c:	ebffff5c 	bl	8c14 <init_keyboard>
    8ea0:	ebfffdb8 	bl	8588 <sched_init>
    8ea4:	eafffcb5 	b	8180 <task_switch>
    8ea8:	e320f000 	nop	{0}
    8eac:	e8bd8800 	pop	{fp, pc}

00008eb0 <user1_main>:
    8eb0:	e92d4800 	push	{fp, lr}
    8eb4:	e28db004 	add	fp, sp, #4
    8eb8:	ebffff87 	bl	8cdc <read_keyboard>
    8ebc:	e320f000 	nop	{0}
    8ec0:	e8bd8800 	pop	{fp, pc}

00008ec4 <user2_main>:
    8ec4:	e92d4800 	push	{fp, lr}
    8ec8:	e28db004 	add	fp, sp, #4
    8ecc:	e24dd008 	sub	sp, sp, #8
    8ed0:	e3a03000 	mov	r3, #0
    8ed4:	e50b3008 	str	r3, [fp, #-8]
    8ed8:	ea000003 	b	8eec <user2_main+0x28>
    8edc:	e320f000 	nop	{0}
    8ee0:	e51b3008 	ldr	r3, [fp, #-8]
    8ee4:	e2833001 	add	r3, r3, #1
    8ee8:	e50b3008 	str	r3, [fp, #-8]
    8eec:	e51b3008 	ldr	r3, [fp, #-8]
    8ef0:	e3530095 	cmp	r3, #149	@ 0x95
    8ef4:	dafffff8 	ble	8edc <user2_main+0x18>
    8ef8:	e320f000 	nop	{0}
    8efc:	e3a00004 	mov	r0, #4
    8f00:	ebfffcbd 	bl	81fc <sleep>
    8f04:	eafffff1 	b	8ed0 <user2_main+0xc>

00008f08 <user3_main>:
    8f08:	e92d4800 	push	{fp, lr}
    8f0c:	e28db004 	add	fp, sp, #4
    8f10:	e24dd008 	sub	sp, sp, #8
    8f14:	e3a03000 	mov	r3, #0
    8f18:	e50b3008 	str	r3, [fp, #-8]
    8f1c:	ea000010 	b	8f64 <user3_main+0x5c>
    8f20:	e3a03000 	mov	r3, #0
    8f24:	e50b300c 	str	r3, [fp, #-12]
    8f28:	ea000003 	b	8f3c <user3_main+0x34>
    8f2c:	e320f000 	nop	{0}
    8f30:	e51b300c 	ldr	r3, [fp, #-12]
    8f34:	e2833001 	add	r3, r3, #1
    8f38:	e50b300c 	str	r3, [fp, #-12]
    8f3c:	e51b300c 	ldr	r3, [fp, #-12]
    8f40:	e30025db 	movw	r2, #1499	@ 0x5db
    8f44:	e1530002 	cmp	r3, r2
    8f48:	dafffff7 	ble	8f2c <user3_main+0x24>
    8f4c:	e320f000 	nop	{0}
    8f50:	e3a00004 	mov	r0, #4
    8f54:	ebfffca8 	bl	81fc <sleep>
    8f58:	e51b3008 	ldr	r3, [fp, #-8]
    8f5c:	e2833001 	add	r3, r3, #1
    8f60:	e50b3008 	str	r3, [fp, #-8]
    8f64:	e51b3008 	ldr	r3, [fp, #-8]
    8f68:	e3530002 	cmp	r3, #2
    8f6c:	daffffeb 	ble	8f20 <user3_main+0x18>
    8f70:	ebfffc9c 	bl	81e8 <pcs_exit>
    8f74:	e320f000 	nop	{0}
    8f78:	e24bd004 	sub	sp, fp, #4
    8f7c:	e8bd8800 	pop	{fp, pc}

00008f80 <memset>:
    8f80:	e3100003 	tst	r0, #3
    8f84:	e92d4030 	push	{r4, r5, lr}
    8f88:	0a000036 	beq	9068 <memset+0xe8>
    8f8c:	e3520000 	cmp	r2, #0
    8f90:	e2423001 	sub	r3, r2, #1
    8f94:	0a00002f 	beq	9058 <memset+0xd8>
    8f98:	e1a0e000 	mov	lr, r0
    8f9c:	e20120ff 	and	r2, r1, #255	@ 0xff
    8fa0:	ea000001 	b	8fac <memset+0x2c>
    8fa4:	e2533001 	subs	r3, r3, #1
    8fa8:	3a00002a 	bcc	9058 <memset+0xd8>
    8fac:	e4ce2001 	strb	r2, [lr], #1
    8fb0:	e31e0003 	tst	lr, #3
    8fb4:	1afffffa 	bne	8fa4 <memset+0x24>
    8fb8:	e3530003 	cmp	r3, #3
    8fbc:	9a00001e 	bls	903c <memset+0xbc>
    8fc0:	e201c0ff 	and	ip, r1, #255	@ 0xff
    8fc4:	e08cc40c 	add	ip, ip, ip, lsl #8
    8fc8:	e353000f 	cmp	r3, #15
    8fcc:	e08cc80c 	add	ip, ip, ip, lsl #16
    8fd0:	9a000027 	bls	9074 <memset+0xf4>
    8fd4:	e2432010 	sub	r2, r3, #16
    8fd8:	e3c2400f 	bic	r4, r2, #15
    8fdc:	e28e5020 	add	r5, lr, #32
    8fe0:	e0855004 	add	r5, r5, r4
    8fe4:	e1a04222 	lsr	r4, r2, #4
    8fe8:	e28e2010 	add	r2, lr, #16
    8fec:	e502c010 	str	ip, [r2, #-16]
    8ff0:	e502c00c 	str	ip, [r2, #-12]
    8ff4:	e502c008 	str	ip, [r2, #-8]
    8ff8:	e502c004 	str	ip, [r2, #-4]
    8ffc:	e2822010 	add	r2, r2, #16
    9000:	e1520005 	cmp	r2, r5
    9004:	1afffff8 	bne	8fec <memset+0x6c>
    9008:	e2842001 	add	r2, r4, #1
    900c:	e313000c 	tst	r3, #12
    9010:	e08e2202 	add	r2, lr, r2, lsl #4
    9014:	e203300f 	and	r3, r3, #15
    9018:	0a000010 	beq	9060 <memset+0xe0>
    901c:	e243e004 	sub	lr, r3, #4
    9020:	e3cee003 	bic	lr, lr, #3
    9024:	e28ee004 	add	lr, lr, #4
    9028:	e082e00e 	add	lr, r2, lr
    902c:	e482c004 	str	ip, [r2], #4
    9030:	e15e0002 	cmp	lr, r2
    9034:	1afffffc 	bne	902c <memset+0xac>
    9038:	e2033003 	and	r3, r3, #3
    903c:	e3530000 	cmp	r3, #0
    9040:	120110ff 	andne	r1, r1, #255	@ 0xff
    9044:	108e3003 	addne	r3, lr, r3
    9048:	0a000002 	beq	9058 <memset+0xd8>
    904c:	e4ce1001 	strb	r1, [lr], #1
    9050:	e15e0003 	cmp	lr, r3
    9054:	1afffffc 	bne	904c <memset+0xcc>
    9058:	e8bd4030 	pop	{r4, r5, lr}
    905c:	e12fff1e 	bx	lr
    9060:	e1a0e002 	mov	lr, r2
    9064:	eafffff4 	b	903c <memset+0xbc>
    9068:	e1a0e000 	mov	lr, r0
    906c:	e1a03002 	mov	r3, r2
    9070:	eaffffd0 	b	8fb8 <memset+0x38>
    9074:	e1a0200e 	mov	r2, lr
    9078:	eaffffe7 	b	901c <memset+0x9c>

0000907c <memcpy>:
    907c:	e352000f 	cmp	r2, #15
    9080:	9a00000c 	bls	90b8 <memcpy+0x3c>
    9084:	e1803001 	orr	r3, r0, r1
    9088:	e3130003 	tst	r3, #3
    908c:	11a03000 	movne	r3, r0
    9090:	12422001 	subne	r2, r2, #1
    9094:	0a00000c 	beq	90cc <memcpy+0x50>
    9098:	e2822001 	add	r2, r2, #1
    909c:	e2433001 	sub	r3, r3, #1
    90a0:	e0812002 	add	r2, r1, r2
    90a4:	e4d1c001 	ldrb	ip, [r1], #1
    90a8:	e1510002 	cmp	r1, r2
    90ac:	e5e3c001 	strb	ip, [r3, #1]!
    90b0:	1afffffb 	bne	90a4 <memcpy+0x28>
    90b4:	e12fff1e 	bx	lr
    90b8:	e3520000 	cmp	r2, #0
    90bc:	e1a03000 	mov	r3, r0
    90c0:	e2422001 	sub	r2, r2, #1
    90c4:	1afffff3 	bne	9098 <memcpy+0x1c>
    90c8:	e12fff1e 	bx	lr
    90cc:	e1a0c000 	mov	ip, r0
    90d0:	e92d41f0 	push	{r4, r5, r6, r7, r8, lr}
    90d4:	e2427010 	sub	r7, r2, #16
    90d8:	e3c7700f 	bic	r7, r7, #15
    90dc:	e2877010 	add	r7, r7, #16
    90e0:	e281e010 	add	lr, r1, #16
    90e4:	e0803007 	add	r3, r0, r7
    90e8:	e51e8010 	ldr	r8, [lr, #-16]
    90ec:	e48c8010 	str	r8, [ip], #16
    90f0:	e51e600c 	ldr	r6, [lr, #-12]
    90f4:	e51e5008 	ldr	r5, [lr, #-8]
    90f8:	e51e4004 	ldr	r4, [lr, #-4]
    90fc:	e15c0003 	cmp	ip, r3
    9100:	e50c600c 	str	r6, [ip, #-12]
    9104:	e50c5008 	str	r5, [ip, #-8]
    9108:	e50c4004 	str	r4, [ip, #-4]
    910c:	e28ee010 	add	lr, lr, #16
    9110:	1afffff4 	bne	90e8 <memcpy+0x6c>
    9114:	e312000c 	tst	r2, #12
    9118:	e202c00f 	and	ip, r2, #15
    911c:	01a0200c 	moveq	r2, ip
    9120:	e0811007 	add	r1, r1, r7
    9124:	0a00000d 	beq	9160 <memcpy+0xe4>
    9128:	e1a04001 	mov	r4, r1
    912c:	e24cc004 	sub	ip, ip, #4
    9130:	e3cc6003 	bic	r6, ip, #3
    9134:	e1a0e12c 	lsr	lr, ip, #2
    9138:	e0836006 	add	r6, r3, r6
    913c:	e243c004 	sub	ip, r3, #4
    9140:	e4945004 	ldr	r5, [r4], #4
    9144:	e5ac5004 	str	r5, [ip, #4]!
    9148:	e15c0006 	cmp	ip, r6
    914c:	1afffffb 	bne	9140 <memcpy+0xc4>
    9150:	e28ec001 	add	ip, lr, #1
    9154:	e2022003 	and	r2, r2, #3
    9158:	e083310c 	add	r3, r3, ip, lsl #2
    915c:	e081110c 	add	r1, r1, ip, lsl #2
    9160:	e3520000 	cmp	r2, #0
    9164:	e2422001 	sub	r2, r2, #1
    9168:	12822001 	addne	r2, r2, #1
    916c:	12433001 	subne	r3, r3, #1
    9170:	10812002 	addne	r2, r1, r2
    9174:	0a000003 	beq	9188 <memcpy+0x10c>
    9178:	e4d1c001 	ldrb	ip, [r1], #1
    917c:	e1510002 	cmp	r1, r2
    9180:	e5e3c001 	strb	ip, [r3, #1]!
    9184:	1afffffb 	bne	9178 <memcpy+0xfc>
    9188:	e8bd41f0 	pop	{r4, r5, r6, r7, r8, lr}
    918c:	e12fff1e 	bx	lr
